(dp0
Vby_trial_and_error
p1
I0
sVsecondly
p2
I0
sVloweringly
p3
I0
sVadditionally
p4
I0
sVisotropically
p5
I0
sVall
p6
I0
sVencouragingly
p7
I0
sVsynonymously
p8
I0
sVat_most
p9
I0
sVastray
p10
I0
sVtransversally
p11
I0
sVunadvisedly
p12
I0
sVevermore
p13
I0
sVcomically
p14
I0
sVyonder
p15
I0
sVbrashly
p16
I0
sVpoorly
p17
F-0.18263997399604132
sVmoonily
p18
I0
sVsomeplace
p19
I0
sVsagely
p20
I0
sVeffectually
p21
I0
sVa_posteriori
p22
I0
sVshambolically
p23
I0
sVperfidiously
p24
I0
sVseriously
p25
F-0.053605044719483616
sVsuperficially
p26
I0
sVno_longer
p27
I0
sVacoustically
p28
I0
sVskilfully
p29
I0
sVhell-for-leather
p30
I0
sVinwards
p31
I0
sVslowest
p32
I0
sVergo
p33
I0
sVonstage
p34
I0
sVlongways
p35
I0
sVoffhanded
p36
I0
sVcomparatively
p37
I0
sVdownstream
p38
I0
sVrashly
p39
I0
sVin_a_low_voice
p40
I0
sVet_aliae
p41
I0
sVdelusively
p42
I0
sVsmack
p43
I0
sVleisurely
p44
I0
sVupstream
p45
I0
sVexperimentally
p46
I0
sVlogarithmically
p47
I0
sVdeplorably
p48
F0.7346608139150805
sVbest_of_all
p49
I0
sVinternally
p50
I0
sVministerially
p51
I0
sVsoulfully
p52
I0
sVsneakingly
p53
I0
sVnip_and_tuck
p54
I0
sVcash_on_delivery
p55
I0
sVcompassionately
p56
I0
sVjarringly
p57
I0
sVrelentlessly
p58
I0
sVunhygienically
p59
I0
sVunconvincingly
p60
I0
sVantecedently
p61
I0
sVirrationally
p62
I0
sVdelightfully
p63
I0
sVblithely
p64
F-2.833915048118516
sVsouth-west
p65
I0
sVvery_well
p66
I0
sVbimonthly
p67
I0
sVspecially
p68
I0
sVnigh
p69
F-0.07629033096592411
sVcordially
p70
I0
sVin_passing
p71
I0
sVin_advance
p72
I0
sVdirect
p73
F0.002731487880136718
sVreticently
p74
I0
sVguardedly
p75
I0
sVsecond
p76
I0
sVcrisply
p77
I0
sVqualitatively
p78
I0
sVhundredfold
p79
I0
sVhaughtily
p80
I0
sVeven
p81
I0
sVmeekly
p82
I0
sVadvertently
p83
I0
sVne'er
p84
I0
sVignominiously
p85
I0
sVirrevocably
p86
I0
sVtirelessly
p87
I0
sVapologetically
p88
I0
sVjocular
p89
I0
sVshamefacedly
p90
I0
sVunmemorably
p91
I0
sVpost-paid
p92
I0
sVabove
p93
I0
sVfrightfully
p94
F0.2150790897657846
sVnew
p95
I0
sVincompatibly
p96
I0
sVever
p97
I0
sVmiserably
p98
I0
sVpictorially
p99
I0
sVin_reality
p100
I0
sVhealthily
p101
I0
sVsimultaneously
p102
I0
sVjubilantly
p103
F9.090976568767378
sVcheek_by_jowl
p104
I0
sVnever
p105
I0
sVweirdly
p106
I0
sVhere
p107
I0
sVundiplomatically
p108
I0
sVmetaphorically
p109
I0
sVtautly
p110
I0
sVperfunctorily
p111
I0
sVfor_the_asking
p112
I0
sVmorosely
p113
I0
sVdemandingly
p114
I0
sVpromptly
p115
F-0.2524801594392763
sVrevengefully
p116
I0
sVvice_versa
p117
I0
sVuntidily
p118
I0
sVinefficiently
p119
I0
sVsuitably
p120
I0
sVincestuously
p121
I0
sVresentfully
p122
I0
sVtypically
p123
I0
sVunkindly
p124
I0
sVmurkily
p125
I0
sVinsensitively
p126
I0
sVon_one_hand
p127
I0
sVmidway
p128
I0
sVas_it_is
p129
I0
sVappropriately
p130
I0
sVleeward
p131
I0
sVdigitally
p132
I0
sVbesides
p133
I0
sVmagically
p134
I0
sVinsistently
p135
I0
sVcontrarily
p136
I0
sVvisibly
p137
I0
sVshabbily
p138
I0
sVobjectively
p139
I0
sVinequitably
p140
I0
sVtoo_much
p141
I0
sVromantically
p142
I0
sVcompulsively
p143
I0
sVintolerantly
p144
I0
sVcredibly
p145
I0
sVlinearly
p146
I0
sVhead-on
p147
I0
sVin_that_respect
p148
I0
sVuprightly
p149
I0
sVplop
p150
I0
sVtantalizingly
p151
I0
sVjustifiedly
p152
F-0.0321342225032151
sVsmarmily
p153
I0
sVoverhead
p154
I0
sVtherefore
p155
I0
sVfrighteningly
p156
I0
sVatypically
p157
I0
sVat_present
p158
F-0.0005074276113547016
sVsingle-handedly
p159
I0
sVsententiously
p160
I0
sVhereby
p161
I0
sVround-arm
p162
I0
sVaurally
p163
I0
sVreversibly
p164
I0
sVlike_the_devil
p165
I0
sVin_full_action
p166
I0
sVcorrespondingly
p167
I0
sVtransiently
p168
I0
sValso_known_as
p169
I0
sVeternally
p170
I0
sVserially
p171
I0
sVsociobiologically
p172
I0
sVsotto_voce
p173
I0
sVreminiscently
p174
I0
sVhand_and_foot
p175
I0
sVauthentically
p176
I0
sVtastefully
p177
I0
sVmorally
p178
I0
sVinexactly
p179
I0
sVmetonymically
p180
I0
sVtremendously
p181
I0
sVlong-windedly
p182
I0
sVmacroscopically
p183
I0
sVcruelly
p184
F-2.48832
sVfor_love_or_money
p185
I0
sVdownfield
p186
I0
sVelegantly
p187
I0
sVconcernedly
p188
I0
sVexpressively
p189
I0
sVunforgettably
p190
I0
sVsensually
p191
I0
sVhuskily
p192
I0
sVbilaterally
p193
I0
sVdextrously
p194
I0
sVon_the_average
p195
I0
sVgenerically
p196
I0
sVedgeways
p197
I0
sVon_base
p198
I0
sVforrard
p199
I0
sVunreadably
p200
I0
sVon_faith
p201
I0
sVfugally
p202
I0
sVround_the_clock
p203
I0
sVhazardously
p204
I0
sVsouthwestwardly
p205
I0
sVpreferably
p206
I0
sVvery_much
p207
I0
sVa_cappella
p208
I0
sVequivocally
p209
I0
sVlight-handedly
p210
I0
sVkinesthetically
p211
I0
sVevenhandedly
p212
F1.0307921510400004e-06
sVofficiously
p213
I0
sVto_a_man
p214
I0
sVultra_vires
p215
I0
sVhesitatingly
p216
I0
sVunwarily
p217
I0
sVoffshore
p218
I0
sVtiredly
p219
I0
sVbadly
p220
F0.040909181526212604
sVhugger-mugger
p221
I0
sVchromatographically
p222
I0
sVesthetically
p223
I0
sVfirst_of_all
p224
I0
sVin_some_way
p225
I0
sVless
p226
I0
sVunsparingly
p227
I0
sVpatchily
p228
I0
sVharmfully
p229
I0
sVunderhand
p230
I0
sVwrong
p231
F-0.12272188211769142
sVtwo_times
p232
I0
sVungracefully
p233
I0
sVcerebrally
p234
I0
sVspeculatively
p235
I0
sVfar_and_wide
p236
I0
sVprovisionally
p237
I0
sVhumiliatingly
p238
I0
sVas_the_crow_flies
p239
I0
sVprosily
p240
I0
sVanymore
p241
I0
sVthird
p242
I0
sVpost-haste
p243
I0
sVpitty-pat
p244
I0
sVprosperously
p245
I0
sValias
p246
I0
sVorally
p247
I0
sVhorribly
p248
F0.07780847949614773
sVassertively
p249
I0
sValoud
p250
F1.1796480000000008e-06
sVpolysyllabically
p251
I0
sVin_a_nutshell
p252
I0
sVefficaciously
p253
I0
sVdramatically
p254
I0
sVforever_and_a_day
p255
I0
sVquite_an
p256
I0
sVsnugly
p257
I0
sVrudely
p258
I0
sVto_and_fro
p259
I0
sVmore_and_more
p260
I0
sVvery_much_like
p261
I0
sVulteriorly
p262
I0
sVdespondently
p263
I0
sVvastly
p264
I0
sVsoothingly
p265
I0
sVon_and_off
p266
I0
sVdiagonally
p267
I0
sVchronically
p268
I0
sVout_of_place
p269
I0
sVfrom_time_to_time
p270
I0
sVbefore
p271
I0
sVadmirably
p272
I0
sVpleasurably
p273
I0
sVwickedly
p274
I0
sVtepidly
p275
I0
sVsomewhere
p276
I0
sVheretofore
p277
I0
sVPRN
p278
I0
sVhaphazard
p279
I0
sVwestwards
p280
I0
sVbetter
p281
F13.794166240577864
sVconically
p282
I0
sVtooth_and_nail
p283
I0
sVdifferently
p284
I0
sVinfluentially
p285
I0
sVday_in_day_out
p286
I0
sVconfidently
p287
I0
sVillegitimately
p288
I0
sVeventually
p289
I0
sVmadly
p290
F-1.0808639105689193e-08
sVdisreputably
p291
I0
sVhand_to_mouth
p292
I0
sVlaconically
p293
I0
sVscenically
p294
I0
sVoften
p295
I0
sVon_the_way
p296
I0
sVbang
p297
I0
sVlento
p298
F0.13244698787375817
sVdownright
p299
I0
sVgloweringly
p300
I0
sVpunitorily
p301
I0
sVobligingly
p302
I0
sVparasitically
p303
I0
sVerotically
p304
I0
sVhaphazardly
p305
I0
sVvigilantly
p306
I0
sVwhacking
p307
I0
sVprophetically
p308
I0
sVreasonably
p309
F2.0567947856881926e-06
sValternately
p310
I0
sVflamboyantly
p311
I0
sVfrantically
p312
I0
sVprofusely
p313
I0
sVeach
p314
I0
sVwantonly
p315
I0
sVend-to-end
p316
I0
sVirregardless
p317
I0
sVsummarily
p318
I0
sVdemocratically
p319
I0
sVcalmly
p320
I0
sVpathetically
p321
I0
sVsuccessively
p322
I0
sVreputedly
p323
I0
sVrecognizably
p324
I0
sVoverbearingly
p325
I0
sVdissolutely
p326
I0
sVawry
p327
I0
sVsubstantially
p328
F0.010697636675426711
sVpublically
p329
I0
sVhalf-heartedly
p330
I0
sVsurpassingly
p331
I0
sVcommunally
p332
I0
sVblankly
p333
I0
sVfor_instance
p334
I0
sVover_and_over
p335
I0
sVlike_kings
p336
I0
sVneglectfully
p337
I0
sVruggedly
p338
I0
sVforte
p339
F2.3592960000000016e-06
sVfrom_the_heart
p340
I0
sVskimpily
p341
I0
sVphotometrically
p342
I0
sVimperfectly
p343
I0
sVin_arrears
p344
F-0.028093095526138482
sVhazily
p345
I0
sVnewly
p346
I0
sVhelter-skelter
p347
I0
sVforth
p348
I0
sVvery_fast
p349
I0
sVbitingly
p350
I0
sVcustomarily
p351
I0
sVunderfoot
p352
I0
sVhigher_up
p353
I0
sVsheer
p354
I0
sVfree
p355
I0
sVcommercially
p356
I0
sVpityingly
p357
I0
sVto_a_greater_extent
p358
I0
sVfrenziedly
p359
I0
sVnecessarily
p360
I0
sVelsewhere
p361
I0
sVforcibly
p362
I0
sVsadly
p363
F-6.834094616973403
sVbiochemically
p364
I0
sVsoberly
p365
F0.10617888725173014
sVuniversally
p366
I0
sValarmingly
p367
I0
sVfictitiously
p368
I0
sVinsubstantially
p369
I0
sVvoyeuristically
p370
I0
sVby_artificial_means
p371
I0
sVundramatically
p372
I0
sVsickeningly
p373
I0
sVin_practice
p374
I0
sVchildishly
p375
I0
sVP.M.
p376
I0
sVin_the_lead
p377
I0
sVcoquettishly
p378
I0
sVin_a_way
p379
I0
sVineffectively
p380
I0
sVloud
p381
F9.437184000000006e-07
sVonly_too
p382
I0
sVrapturously
p383
I0
sVchronologically
p384
I0
sVthereon
p385
I0
sVwell
p386
F-0.14846236317352102
sVto_no_degree
p387
I0
sVplayfully
p388
I0
sVreciprocally
p389
I0
sVthereof
p390
I0
sVat_first_sight
p391
I0
sVupwind
p392
I0
sVsmugly
p393
I0
sVpoutingly
p394
I0
sVthoughtfully
p395
I0
sVon_earth
p396
I0
sVmechanistically
p397
I0
sVseparably
p398
I0
sVmasterfully
p399
I0
sVhigh_up
p400
I0
sVlikely
p401
I0
sVsimilarly
p402
I0
sVforsooth
p403
I0
sVin_that_location
p404
I0
sVoutstandingly
p405
I0
sVapproximately
p406
F-0.00389389610881405
sVgreedily
p407
I0
sVnumbly
p408
I0
sVtheatrically
p409
I0
sVlamentably
p410
F0.3428820483361355
sVthematically
p411
I0
sVtoo
p412
I0
sVwildly
p413
I0
sVby_and_large
p414
I0
sVpurposefully
p415
I0
sVbitter
p416
I0
sVpardonably
p417
I0
sVspectrographically
p418
I0
sVsolemnly
p419
I0
sVoffhand
p420
I0
sVhappily
p421
F9.309658613179773
sVludicrously
p422
I0
sVto_be_sure
p423
I0
sVonshore
p424
I0
sVintegrally
p425
I0
sVperseveringly
p426
I0
sVsomewhat
p427
F6.845163239208707e-05
sVscholastically
p428
I0
sVfelicitously
p429
I0
sVby_fits_and_starts
p430
I0
sVcrosstown
p431
I0
sVfinitely
p432
I0
sVmercifully
p433
I0
sVperfectly
p434
I0
sVrewardingly
p435
I0
sVfrankly
p436
I0
sVsoonest
p437
I0
sVcold-bloodedly
p438
I0
sVin_one_case
p439
F0.00015561553166381733
sVin_turn
p440
I0
sVidly
p441
I0
sVpleadingly
p442
I0
sVsplendidly
p443
I0
sVdiagrammatically
p444
I0
sVhebdomadally
p445
I0
sVlast_not_least
p446
I0
sVaskance
p447
I0
sVpig-headedly
p448
I0
sVgirlishly
p449
I0
sVsolely
p450
I0
sVposthumously
p451
I0
sVlugubriously
p452
I0
sVa_lot
p453
I0
sVshyly
p454
I0
sVprofligately
p455
I0
sVbenevolently
p456
I0
sVrefreshingly
p457
I0
sVthe_whole_way
p458
I0
sVright_away
p459
F0.1583297689396298
sVstaggeringly
p460
I0
sVfacetiously
p461
I0
sVjolly
p462
F1.7009546388608192e-05
sVrelatively
p463
I0
sVconfidingly
p464
I0
sVabroad
p465
I0
sVjealously
p466
I0
sVallegedly
p467
I0
sVtenthly
p468
I0
sVconjecturally
p469
I0
sVthoroughly
p470
F0.04380919094971465
sVquizzically
p471
I0
sVen_bloc
p472
I0
sVeagerly
p473
I0
sVde_novo
p474
I0
sVhigh
p475
I0
sVprofessorially
p476
I0
sVdefiantly
p477
I0
sVresponsibly
p478
I0
sVin_point_of_fact
p479
I0
sVmindfully
p480
I0
sVdoubtless
p481
I0
sVdisdainfully
p482
I0
sVinexcusably
p483
I0
sVmedicinally
p484
I0
sVthough
p485
I0
sVunashamedly
p486
I0
sVall_the_time
p487
I0
sVa_little
p488
I0
sVsullenly
p489
I0
sVahorse
p490
I0
sVtensely
p491
I0
sVaffirmatively
p492
I0
sVperforce
p493
I0
sVplenty
p494
I0
sVdecorously
p495
I0
sVcumulatively
p496
I0
sVunknowingly
p497
I0
sVfor_sure
p498
I0
sVbuxomly
p499
I0
sVcarnally
p500
I0
sVacross_the_board
p501
I0
sVafter_all
p502
I0
sVflop
p503
F-0.04145556809049583
sVuncomplainingly
p504
I0
sVin_the_meantime
p505
I0
sVrollickingly
p506
I0
sVmenially
p507
I0
sVpromiscuously
p508
I0
sVphenomenally
p509
I0
sVcursedly
p510
I0
sVbriskly
p511
I0
sVdecidedly
p512
I0
sVunanimously
p513
I0
sVwarmly
p514
I0
sVsubtly
p515
I0
sVcongenially
p516
I0
sVmagisterially
p517
I0
sVall_along
p518
I0
sVambiguously
p519
I0
sVgrouchily
p520
I0
sVdeftly
p521
I0
sVserenely
p522
I0
sVabstractedly
p523
I0
sVin_two_ways
p524
I0
sVincoherently
p525
I0
sVcheaply
p526
I0
sVabreast
p527
I0
sVmarvelously
p528
F-2.2649591412959795
sVapace
p529
F-0.39002963919042366
sVnortheast
p530
I0
sVin_extremis
p531
I0
sVpainfully
p532
I0
sVin_vacuo
p533
I0
sVingloriously
p534
I0
sVby_all_means
p535
I0
sVin_so_far
p536
I0
sVsilkily
p537
I0
sVthermodynamically
p538
I0
sVindustriously
p539
I0
sVby_experimentation
p540
I0
sVstudiously
p541
I0
sVexcitedly
p542
I0
sVeasterly
p543
I0
sVfoolishly
p544
I0
sVsouth-southeast
p545
I0
sVmetrically
p546
I0
sVfalsely
p547
F0.31982333077021
sVemphatically
p548
I0
sVjust_so
p549
I0
sVbuoyantly
p550
I0
sVnem_con
p551
I0
sVelementarily
p552
I0
sVbountifully
p553
I0
sVforemost
p554
I0
sVprotectively
p555
I0
sVnext
p556
I0
sVfrothily
p557
I0
sVlater_on
p558
I0
sVsonorously
p559
I0
sVvividly
p560
I0
sVunworthily
p561
I0
sVheadlong
p562
I0
sVunconsciously
p563
I0
sVtil_now
p564
I0
sVto_wit
p565
I0
sVcleanly
p566
I0
sVstoically
p567
I0
sVbehindhand
p568
F-0.05240031369183311
sVdictatorially
p569
I0
sVnicely
p570
I0
sVofficially
p571
I0
sVanxiously
p572
I0
sVpluckily
p573
I0
sValtruistically
p574
I0
sVdeservedly
p575
I0
sVtwice
p576
I0
sVbad
p577
F0.11794799820800003
sVsoftly
p578
F-0.0006081631795281923
sVfitly
p579
I0
sVnefariously
p580
I0
sVhumanly
p581
I0
sVshrewdly
p582
I0
sVfair
p583
F6.184752906240003e-07
sVseriatim
p584
I0
sVwishfully
p585
I0
sVskeptically
p586
I0
sVunexpectedly
p587
I0
sVfull
p588
I0
sVdesolately
p589
I0
sVdementedly
p590
I0
sVfain
p591
I0
sVwhen_first_seen
p592
I0
sVmournfully
p593
I0
sVbest
p594
F11.66180520048155
sVtersely
p595
I0
sVunderarm
p596
I0
sVinversely
p597
I0
sVadvisedly
p598
I0
sVimmaculately
p599
I0
sVlots
p600
I0
sVaway
p601
I0
sVinsolently
p602
I0
sVpredicatively
p603
I0
sVcontinually
p604
I0
sVvulgarly
p605
I0
sVat_first_glance
p606
I0
sVdeceptively
p607
I0
sVamusingly
p608
I0
sVantagonistically
p609
I0
sVhopefully
p610
I0
sVprima_facie
p611
I0
sVobservantly
p612
I0
sVin_writing
p613
I0
sVlistlessly
p614
I0
sVnationwide
p615
I0
sVundependably
p616
I0
sVbounteously
p617
I0
sVconfessedly
p618
I0
sVhowever
p619
I0
sVabstractly
p620
I0
sVinextricably
p621
I0
sVsoutheast
p622
I0
sVarchly
p623
I0
sVevery_now_and_then
p624
I0
sVbelike
p625
I0
sVbashfully
p626
I0
sVenviously
p627
I0
sVdexterously
p628
I0
sVaerially
p629
I0
sVdazedly
p630
I0
sVessentially
p631
I0
sVall_right
p632
I0
sVadulterously
p633
I0
sVmusicologically
p634
I0
sVill
p635
F-0.061086828704405974
sVincriminatingly
p636
I0
sVaskew
p637
I0
sVsmuttily
p638
I0
sVon_the_face_of_it
p639
I0
sVat_all_costs
p640
I0
sVtendentiously
p641
I0
sVmildly
p642
F-3.2031689932800024e-05
sVby_far
p643
I0
sVfearlessly
p644
I0
sVcon
p645
I0
sVpruriently
p646
I0
sVpit-a-pat
p647
I0
sVpresumably
p648
I0
sVhuffily
p649
I0
sVimmodestly
p650
I0
sVdrearily
p651
F-0.0040648381062398636
sVin_the_end
p652
I0
sVBCE
p653
I0
sVlimitedly
p654
I0
sVmulishly
p655
I0
sVhands_down
p656
I0
sVno_doubt
p657
I0
sVunsymmetrically
p658
I0
sVirresponsibly
p659
I0
sVlinguistically
p660
I0
sVconstructively
p661
I0
sVfalse
p662
I0
sVB.C.
p663
I0
sVbiweekly
p664
I0
sVobsessionally
p665
I0
sVhysterically
p666
I0
sVaback
p667
I0
sVgrandiloquently
p668
I0
sVunhappily
p669
F2.346481910615522
sVso_to_speak
p670
I0
sVsleekly
p671
I0
sVfoully
p672
I0
sVdisgracefully
p673
I0
sVpedagogically
p674
I0
sVquickly
p675
F1.2598848954898882
sVbreathlessly
p676
I0
sVchirpily
p677
I0
sVmuch
p678
I0
sVmiraculously
p679
I0
sVimmunologically
p680
I0
sVincomparably
p681
I0
sVnonverbally
p682
I0
sVadroitly
p683
I0
sVthrice
p684
I0
sVusuriously
p685
I0
sVempathetically
p686
I0
sVon_the_sly
p687
I0
sVbeastly
p688
I0
sVmellowingly
p689
I0
sVlongitudinally
p690
I0
sVCE
p691
I0
sVin_toto
p692
I0
sVpsychically
p693
I0
sVof_all_time
p694
I0
sVpithily
p695
I0
sVlang_syne
p696
I0
sVpersonally
p697
I0
sVmaximally
p698
I0
sVerst
p699
F0.006200683589910291
sVjeeringly
p700
I0
sVfor_that_matter
p701
I0
sVmeanspiritedly
p702
I0
sVthenceforth
p703
I0
sVpublicly
p704
I0
sVprofitably
p705
I0
sVrigorously
p706
I0
sVsuperciliously
p707
I0
sVinattentively
p708
I0
sVprofessionally
p709
I0
sVspontaneously
p710
I0
sVthrough_empirical_observation
p711
I0
sVrationally
p712
I0
sVnear
p713
F0.004792528631699497
sVcomfortably
p714
F-0.15188174999571663
sVimperatively
p715
I0
sVchorally
p716
I0
sVunctuously
p717
I0
sVinfectiously
p718
I0
sVfor_good
p719
I0
sVin_the_adjacent_apartment
p720
I0
sVon_the_other_hand
p721
I0
sVextemporarily
p722
I0
sVpenitentially
p723
I0
sVinscrutably
p724
I0
sVlasciviously
p725
I0
sVprimitively
p726
I0
sVin
p727
I0
sVie
p728
I0
sVbewilderingly
p729
I0
sVconvulsively
p730
I0
sVthusly
p731
I0
sVinventively
p732
I0
sVstaidly
p733
F0.05219365059114411
sVapparently
p734
I0
sVreflectively
p735
I0
sVarbitrarily
p736
I0
sVall_told
p737
I0
sVlexically
p738
I0
sVout_of_doors
p739
I0
sVpotentially
p740
I0
sVworthlessly
p741
I0
sVper_annum
p742
I0
sVincorrectly
p743
F0.5912162065440728
sVcross-country
p744
I0
sVimperiously
p745
I0
sVfairly
p746
F2.2911200427424238e-05
sVeffortlessly
p747
I0
sVpalpably
p748
I0
sVinadvertently
p749
I0
sVperceptually
p750
I0
sVinsensately
p751
I0
sVall_together
p752
I0
sVblandly
p753
I0
sVeffectively
p754
I0
sVhyperbolically
p755
I0
sVconfusedly
p756
I0
sVdefenselessly
p757
I0
sVcrushingly
p758
I0
sVdownwardly
p759
I0
sVmalignantly
p760
I0
sVin_effect
p761
I0
sVweakly
p762
I0
sVshortly
p763
I0
sVincredulously
p764
I0
sVpresto
p765
I0
sVunconditionally
p766
I0
sVinescapably
p767
I0
sVrotundly
p768
I0
sVdrowsily
p769
I0
sVfanatically
p770
I0
sVofttimes
p771
I0
sVhumbly
p772
I0
sVadmiringly
p773
I0
sVuncivilly
p774
I0
sVindecorously
p775
I0
sVleft
p776
I0
sVquerulously
p777
I0
sVjust
p778
I0
sVspacewards
p779
I0
sVyea
p780
I0
sVpunily
p781
I0
sVunemotionally
p782
I0
sVfinancially
p783
I0
sVfarther
p784
I0
sVspherically
p785
I0
sVstrenuously
p786
I0
sVyet
p787
I0
sVelectronically
p788
I0
sVB.C.E.
p789
I0
sVtolerably
p790
I0
sVlight-heartedly
p791
I0
sVat_large
p792
I0
sVspotlessly
p793
I0
sVinfinitely
p794
I0
sVmeanly
p795
I0
sVthick
p796
F1.1796480000000008e-06
sVinfelicitously
p797
I0
sVsometimes
p798
I0
sVmathematically
p799
I0
sVneurobiological
p800
I0
sVinconclusively
p801
I0
sVgamely
p802
I0
sVeasy
p803
F-0.20380330943424524
sVmaladroitly
p804
I0
sVslouchingly
p805
I0
sVeast
p806
I0
sVpreciously
p807
I0
sVdeadly
p808
I0
sVerratically
p809
I0
sVdrably
p810
I0
sVharmoniously
p811
I0
sVunblinkingly
p812
I0
sVlickety_cut
p813
I0
sVincontrovertibly
p814
I0
sVcasually
p815
I0
sValternatively
p816
I0
sVfor_a_while
p817
I0
sVtrippingly
p818
I0
sVpizzicato
p819
I0
sVangrily
p820
F-2.48832
sVunequivocally
p821
I0
sVhalf-yearly
p822
I0
sVinscriptively
p823
I0
sVdorsally
p824
I0
sVof_a_sudden
p825
I0
sVend_on
p826
I0
sVbawdily
p827
I0
sVmassively
p828
I0
sVapart
p829
I0
sVen_passant
p830
I0
sVsou'-sou'-east
p831
I0
sVexpensively
p832
I0
sVfor_each_person
p833
I0
sVimpertinently
p834
I0
sVtemporally
p835
I0
sVharmonically
p836
I0
sVanciently
p837
I0
sVreverentially
p838
I0
sVfarcically
p839
I0
sVasexually
p840
I0
sVinsecticidally
p841
I0
sVagainst_time
p842
I0
sVgreyly
p843
I0
sVgrotesquely
p844
I0
sVmeditatively
p845
I0
sVincisively
p846
I0
sVright
p847
F0.01585923949119855
sVundeservedly
p848
I0
sVdiscordantly
p849
I0
sVsuccessfully
p850
I0
sVproudly
p851
I0
sVa_la_carte
p852
I0
sVdead
p853
I0
sVsure
p854
I0
sVinsincerely
p855
I0
sVmaterialistically
p856
I0
sVput_differently
p857
I0
sVdear
p858
I0
sVstealthily
p859
I0
sVmystically
p860
I0
sVplaintively
p861
I0
sVimmaturely
p862
I0
sVadorably
p863
I0
sVad_interim
p864
I0
sVperchance
p865
I0
sVcollect
p866
I0
sVconsecutive
p867
I0
sVeschatologically
p868
I0
sVgruesomely
p869
I0
sVby_inches
p870
I0
sVcommensally
p871
I0
sVright_smart
p872
I0
sVbetimes
p873
F0.0004496434790400001
sVunavoidably
p874
I0
sVlandward
p875
I0
sVsomeway
p876
I0
sVbenignantly
p877
I0
sVsyllabically
p878
I0
sVcuttingly
p879
I0
sVripely
p880
I0
sVas_required
p881
I0
sVdolce
p882
I0
sVmemorably
p883
I0
sVobscurely
p884
I0
sVhead_and_shoulders_above
p885
I0
sVcrucially
p886
I0
sVirritatingly
p887
I0
sVcagily
p888
I0
sVdauntlessly
p889
I0
sVstaunchly
p890
I0
sVunder_that
p891
I0
sVbolt
p892
I0
sVpretty_much
p893
I0
sVin_conclusion
p894
I0
sVAD
p895
I0
sVat_times
p896
I0
sVpalatably
p897
I0
sVhomewards
p898
I0
sVof_each_person
p899
I0
sVhard
p900
F-0.015561243295744001
sVboiling
p901
I0
sVout_of_the_blue
p902
I0
sVas_a_formality
p903
I0
sVplum
p904
F-2.061584302080001e-07
sVon_the_fly
p905
I0
sVsinusoidally
p906
I0
sVsottishly
p907
I0
sVirretrievably
p908
I0
sVunrecognizably
p909
I0
sVglissando
p910
I0
sVimprovidently
p911
I0
sVslightly
p912
F0.0001629734927385847
sVautomatically
p913
I0
sVexpertly
p914
I0
sVhotly
p915
I0
sVexultingly
p916
I0
sVamorally
p917
I0
sVlief
p918
I0
sVformerly
p919
F0.0015475041985720814
sVunabashedly
p920
I0
sVfussily
p921
I0
sVwittingly
p922
I0
sVlavishly
p923
I0
sVformidably
p924
I0
sVdefinitely
p925
I0
sVrespectably
p926
I0
sVpenuriously
p927
I0
sVdown
p928
I0
sVmultiply
p929
I0
sVabed
p930
I0
sVfinely
p931
I0
sVwindily
p932
I0
sVad_lib
p933
I0
sVuneventfully
p934
I0
sVyou_said_it
p935
I0
sVin_the_midst
p936
I0
sVstrangely
p937
I0
sVevery_which_way
p938
I0
sVabjectly
p939
I0
sVknowingly
p940
I0
sVC.O.D.
p941
I0
sVappealingly
p942
I0
sVin_good_time
p943
I0
sVamazingly
p944
I0
sVconstantly
p945
I0
sVunpretentiously
p946
I0
sVmonth_by_month
p947
I0
sVabsolutely
p948
I0
sVaccordingly
p949
I0
sVspicily
p950
I0
sVway
p951
I0
sVpragmatically
p952
I0
sVluckily
p953
I0
sVpurposely
p954
I0
sVmovingly
p955
I0
sVlowest
p956
I0
sVtherapeutically
p957
I0
sVtherefrom
p958
I0
sVsecondhand
p959
I0
sVafresh
p960
I0
sVunderstandably
p961
I0
sVsome
p962
F0.00021794236450675773
sVsunnily
p963
I0
sVconclusively
p964
I0
sVunmanly
p965
I0
sVfore
p966
I0
sVsomehow
p967
I0
sVshrilly
p968
I0
sVpowerfully
p969
I0
sVuninvitedly
p970
I0
sVsatisfactorily
p971
I0
sVtutorially
p972
I0
sVtrue
p973
I0
sVwhatever_may_come
p974
I0
sVagain
p975
I0
sVhandily
p976
I0
sVartistically
p977
I0
sVnoncomprehensively
p978
I0
sVflawlessly
p979
I0
sVagonizingly
p980
I0
sVinside
p981
I0
sVvoluptuously
p982
I0
sVcap-a-pie
p983
I0
sVvery_softly
p984
I0
sVexuberantly
p985
I0
sVlackadaisically
p986
I0
sVprivily
p987
I0
sVinvidiously
p988
I0
sVanew
p989
I0
sVglaringly
p990
I0
sVunusually
p991
I0
sVmartially
p992
I0
sVterminally
p993
I0
sVbrightly
p994
I0
sVhistologically
p995
I0
sVat_a_low_price
p996
I0
sVbelievably
p997
I0
sVrestrictively
p998
I0
sVsteady
p999
I0
sVploddingly
p1000
I0
sVreligiously
p1001
I0
sVstupendously
p1002
I0
sVin_good_order
p1003
F0.12193836566206813
sVexaggeratedly
p1004
I0
sVpredominantly
p1005
I0
sVappositively
p1006
I0
sVin_darkness
p1007
I0
sVbody_and_soul
p1008
I0
sVawhile
p1009
I0
sVhumorlessly
p1010
I0
sVprofanely
p1011
I0
sVante_meridiem
p1012
I0
sVradically
p1013
I0
sVby_all_odds
p1014
I0
sVno
p1015
I0
sVgenerally
p1016
I0
sVdingdong
p1017
I0
sVsymptomatically
p1018
I0
sVgeographically
p1019
I0
sVunambiguously
p1020
I0
sVskywards
p1021
I0
sVrottenly
p1022
F0.17229469730374156
sVsoundly
p1023
F0.1421562637271433
sVtamely
p1024
I0
sVwordlessly
p1025
I0
sVgrimly
p1026
I0
sVundeniably
p1027
I0
sVoptically
p1028
I0
sVravingly
p1029
I0
sVet_alii
p1030
I0
sVdownward
p1031
I0
sVo'clock
p1032
I0
sVunromantically
p1033
I0
sVrent-free
p1034
I0
sVuninterestingly
p1035
I0
sVet_alia
p1036
I0
sVgradually
p1037
I0
sVmightily
p1038
F-0.097871997508923
sVgenially
p1039
I0
sVconjugally
p1040
I0
sVfruitlessly
p1041
I0
sVkinaesthetically
p1042
I0
sVreassuringly
p1043
I0
sVunder_way
p1044
I0
sVhectically
p1045
I0
sVpolyphonically
p1046
I0
sVfrontally
p1047
I0
sVfaster
p1048
I0
sVfor_the_moment
p1049
I0
sValertly
p1050
I0
sVnor'-west
p1051
I0
sVvigorously
p1052
I0
sVdoctrinally
p1053
I0
sVby_nature
p1054
I0
sVtogether
p1055
I0
sVineluctably
p1056
I0
sVardently
p1057
I0
sVplastically
p1058
I0
sVbackward
p1059
I0
sValliteratively
p1060
I0
sVexpansively
p1061
I0
sVauspiciously
p1062
I0
sVdiscreetly
p1063
I0
sVtongue-in-cheek
p1064
I0
sVindecently
p1065
I0
sVlawlessly
p1066
I0
sVacademically
p1067
I0
sVdazzlingly
p1068
I0
sVhorseback
p1069
I0
sVgrandly
p1070
I0
sVdeprecatively
p1071
I0
sVdrastically
p1072
I0
sVadamantly
p1073
I0
sVtouchingly
p1074
I0
sVremarkably
p1075
I0
sVmagnanimously
p1076
I0
sVcertainly
p1077
I0
sVcoordinately
p1078
I0
sVto_the_full
p1079
I0
sVobsessively
p1080
I0
sVmethodically
p1081
I0
sVat_long_last
p1082
I0
sVvexatiously
p1083
I0
sVno_end
p1084
I0
sVfinally
p1085
I0
sVfoursquare
p1086
I0
sVpermanently
p1087
I0
sVimperially
p1088
I0
sVyieldingly
p1089
I0
sVdaintily
p1090
I0
sVhere_and_there
p1091
I0
sVsouthwest
p1092
I0
sVfeebly
p1093
I0
sVupriver
p1094
I0
sVostentatiously
p1095
I0
sVbroadly
p1096
I0
sVone_by_one
p1097
I0
sVex_vivo
p1098
I0
sVartificially
p1099
I0
sVseemingly
p1100
I0
sVbreadthwise
p1101
I0
sVcoarsely
p1102
I0
sVferociously
p1103
I0
sVby_hook_or_by_crook
p1104
I0
sVterrestrially
p1105
I0
sVcomfortingly
p1106
I0
sVfor_short
p1107
I0
sVoftentimes
p1108
I0
sVaggressively
p1109
I0
sVwondrously
p1110
F-1.0912038783720455
sVby_the_day
p1111
I0
sVpurely
p1112
I0
sVdecipherably
p1113
I0
sVred-handed
p1114
I0
sVsteeply
p1115
I0
sVaccidentally
p1116
I0
sVitem
p1117
I0
sVdomestically
p1118
I0
sVuxoriously
p1119
I0
sVquick
p1120
F-0.1622063323767708
sVthousand_times
p1121
I0
sVlastingly
p1122
I0
sVround
p1123
F0.0008091715722197404
sVat_will
p1124
I0
sVimprecisely
p1125
I0
sVslower
p1126
I0
sVobnoxiously
p1127
I0
sVrhetorically
p1128
I0
sVmonaurally
p1129
I0
sVsneakily
p1130
I0
sVinconsiderately
p1131
I0
sVinland
p1132
I0
sVmeasurably
p1133
I0
sVall_the_way
p1134
I0
sVin_place
p1135
I0
sVlong_ago
p1136
I0
sVin_fact
p1137
I0
sVindependently
p1138
I0
sVramblingly
p1139
I0
sVon_the_coattails
p1140
I0
sVwheezily
p1141
I0
sVplunk
p1142
I0
sVpleasingly
p1143
I0
sVloquaciously
p1144
I0
sVtorturously
p1145
I0
sVunfeelingly
p1146
I0
sVacross_the_nation
p1147
I0
sVdishonestly
p1148
I0
sVclannishly
p1149
I0
sVunintentionally
p1150
I0
sVfrom_way_back
p1151
I0
sVoutlandishly
p1152
I0
sVnominally
p1153
I0
sVsociably
p1154
I0
sVas_usual
p1155
I0
sVsocioeconomically
p1156
I0
sVpresciently
p1157
I0
sVmunicipally
p1158
I0
sVinvoluntarily
p1159
I0
sVa_la_mode
p1160
I0
sVknavishly
p1161
I0
sVunfaithfully
p1162
I0
sVslow
p1163
F0.18664571052814713
sVidyllically
p1164
I0
sValone
p1165
I0
sVbusily
p1166
I0
sValong
p1167
I0
sVcon_brio
p1168
I0
sVfor_dear_life
p1169
I0
sVas_needed
p1170
I0
sVequably
p1171
I0
sVimpatiently
p1172
I0
sVexpressly
p1173
I0
sVwherever
p1174
I0
sVsearchingly
p1175
I0
sVcommonly
p1176
I0
sVto_advantage
p1177
I0
sVmolto
p1178
I0
sVsincerely
p1179
I0
sVto_one_ear
p1180
I0
sVtolerantly
p1181
I0
sVconveniently
p1182
I0
sVspiritedly
p1183
I0
sVnortheastward
p1184
I0
sVhomeward
p1185
I0
sVgorgeously
p1186
I0
sVmalignly
p1187
I0
sVhither
p1188
I0
sVat_best
p1189
I0
sVregardless
p1190
I0
sVhiggledy-piggledy
p1191
I0
sVextra
p1192
I0
sVet_al
p1193
I0
sVmerely
p1194
I0
sVdiscontentedly
p1195
I0
sVpessimistically
p1196
I0
sVbloody
p1197
I0
sVuphill
p1198
I0
sVwithal
p1199
I0
sVinquisitively
p1200
I0
sVlogically
p1201
I0
sVunbelievingly
p1202
I0
sVin_any_case
p1203
I0
sVrarely
p1204
I0
sVto_the_letter
p1205
I0
sVhierarchically
p1206
I0
sVconformably
p1207
I0
sVib.
p1208
I0
sVintensively
p1209
I0
sVsuper
p1210
I0
sVcorruptedly
p1211
I0
sVstep_by_step
p1212
I0
sVtightly
p1213
I0
sVvariously
p1214
I0
sVlive
p1215
I0
sVwonderfully
p1216
F7.003839626138291
sVlike_thunder
p1217
I0
sVexpeditiously
p1218
I0
sVmelodramatically
p1219
I0
sVfor_a_bargain_price
p1220
I0
sVtoday
p1221
F0.0012152954319738438
sVintently
p1222
I0
sVeditorially
p1223
I0
sVthrough_and_through
p1224
I0
sVin_both_ears
p1225
I0
sVadoringly
p1226
I0
sVaright
p1227
F-0.38897492447035265
sVpryingly
p1228
I0
sVcytoplasmically
p1229
I0
sVwrongheadedly
p1230
I0
sVdowntown
p1231
I0
sVinsultingly
p1232
I0
sVtandem
p1233
I0
sVeverywhere
p1234
I0
sVtip-top
p1235
I0
sVacceptably
p1236
I0
sVseventhly
p1237
I0
sVfancifully
p1238
I0
sVvolubly
p1239
I0
sVknee-high
p1240
I0
sVonce_in_a_while
p1241
I0
sVindirectly
p1242
I0
sVwilfully
p1243
I0
sVoriginally
p1244
I0
sVfalteringly
p1245
I0
sVinveterate
p1246
I0
sVqueerly
p1247
I0
sVhook_line_and_sinker
p1248
I0
sVeveryplace
p1249
I0
sVsyntactically
p1250
I0
sVspuriously
p1251
I0
sVcounteractively
p1252
I0
sVwoefully
p1253
F0.5766343487414503
sVcentrally
p1254
I0
sVgravitationally
p1255
I0
sVon_approval
p1256
I0
sVas_follows
p1257
I0
sVlongwise
p1258
I0
sVnor'-nor'-east
p1259
I0
sVstormily
p1260
I0
sVaround_the_clock
p1261
I0
sVstoutly
p1262
I0
sVtalkatively
p1263
I0
sVas_well
p1264
I0
sVpointedly
p1265
I0
sVvalidly
p1266
I0
sVchop-chop
p1267
F0.03035186858234186
sVslackly
p1268
I0
sVconversely
p1269
I0
sVevidently
p1270
I0
sVsubconsciously
p1271
I0
sVallowably
p1272
I0
sVfortunately
p1273
I0
sVmatrilineally
p1274
I0
sVbenignly
p1275
I0
sVvainly
p1276
I0
sVstrikingly
p1277
I0
sVscornfully
p1278
I0
sVdistally
p1279
I0
sVchurlishly
p1280
I0
sVinhumanely
p1281
I0
sVfourth
p1282
I0
sVunmanfully
p1283
I0
sVnorthwards
p1284
I0
sVmagna_cum_laude
p1285
I0
sVbannerlike
p1286
I0
sVflashily
p1287
I0
sVunutterably
p1288
I0
sVinsignificantly
p1289
I0
sVnever_again
p1290
I0
sVsedately
p1291
I0
sVunacceptably
p1292
I0
sVunoriginally
p1293
I0
sVsteadily
p1294
I0
sVat_a_time
p1295
F0.0045347657925044645
sVneeds
p1296
I0
sVdouble_time
p1297
I0
sVconvincingly
p1298
I0
sVunawares
p1299
I0
sVunblushingly
p1300
I0
sVsuch
p1301
I0
sVnationally
p1302
I0
sVthis_evening
p1303
I0
sVunbelievably
p1304
I0
sVindifferently
p1305
I0
sVby_rights
p1306
F0.002812142267496673
sVnakedly
p1307
I0
sVstupidly
p1308
I0
sVmaybe
p1309
I0
sVworryingly
p1310
I0
sVoutside_marriage
p1311
I0
sVordinarily
p1312
I0
sVin_the_nick_of_time
p1313
I0
sVup_and_down
p1314
I0
sVso
p1315
I0
sVprogressively
p1316
I0
sVfortuitously
p1317
I0
sVstertorously
p1318
I0
sVin_tandem
p1319
I0
sVa.k.a.
p1320
I0
sVabeam
p1321
I0
sVcannily
p1322
I0
sVunfavorably
p1323
I0
sVunderstandingly
p1324
I0
sVindeed
p1325
I0
sVattributively
p1326
I0
sVmainly
p1327
I0
sVcontagiously
p1328
I0
sVaffectingly
p1329
I0
sVaggravatingly
p1330
I0
sVuntil_now
p1331
I0
sVcounterclockwise
p1332
I0
sVhumanely
p1333
I0
sVstill
p1334
I0
sVmanagerially
p1335
I0
sVsymmetrically
p1336
I0
sVin_general
p1337
I0
sVtellingly
p1338
I0
sVparadoxically
p1339
I0
sVquixotically
p1340
I0
sVinternationally
p1341
I0
sVsociologically
p1342
I0
sVwell-nigh
p1343
F-0.018629922626797545
sVgrammatically
p1344
I0
sVdisconcertingly
p1345
I0
sVhypothalamically
p1346
I0
sVcovertly
p1347
I0
sVnarrow-mindedly
p1348
I0
sVwhole
p1349
I0
sVdreadfully
p1350
F0.14749233255003172
sVbrusquely
p1351
I0
sVdisturbingly
p1352
I0
sVtransparently
p1353
I0
sVinstantly
p1354
F-0.009171166167346102
sVmodestly
p1355
I0
sVnon
p1356
I0
sVfreshly
p1357
I0
sVthereby
p1358
I0
sVglacially
p1359
I0
sVunhurriedly
p1360
I0
sVillogically
p1361
I0
sVslantways
p1362
I0
sVsooner
p1363
I0
sVdouble_quick
p1364
I0
sVunderneath
p1365
I0
sVsprucely
p1366
I0
sVcutely
p1367
I0
sVidentically
p1368
I0
sVin_an_elaborate_way
p1369
I0
sVkind_of
p1370
I0
sVnemine_contradicente
p1371
I0
sVnow
p1372
F-0.0045023639327304715
sVpetulantly
p1373
I0
sVphylogenetically
p1374
I0
sVunendingly
p1375
I0
sVfirst-rate
p1376
I0
sVin_cold_blood
p1377
I0
sVat_worst
p1378
I0
sVlicitly
p1379
I0
sVresidentially
p1380
I0
sVunbeknown
p1381
I0
sVceremonially
p1382
I0
sVoutrageously
p1383
F0.018679364914087875
sVchivalrously
p1384
I0
sVsomnolently
p1385
I0
sVentirely
p1386
I0
sVin_theory
p1387
I0
sVcheekily
p1388
I0
sVlast
p1389
I0
sVindividually
p1390
I0
sVsobbingly
p1391
I0
sVsquare
p1392
I0
sVpoetically
p1393
I0
sVsignificantly
p1394
I0
sVdisconsolately
p1395
I0
sVworriedly
p1396
I0
sVmedially
p1397
I0
sVthousand-fold
p1398
I0
sVrichly
p1399
I0
sVday_in_and_day_out
p1400
I0
sVtidily
p1401
I0
sVas_it_were
p1402
I0
sVunrecognisable
p1403
I0
sValoof
p1404
I0
sVpari_passu
p1405
I0
sVvociferously
p1406
I0
sVdidactically
p1407
I0
sVregionally
p1408
I0
sVadequately
p1409
I0
sVritually
p1410
I0
sVultimately
p1411
I0
sVbalefully
p1412
I0
sVfacially
p1413
I0
sVin_all
p1414
I0
sVaxiomatically
p1415
I0
sVin_vain
p1416
I0
sVfurthermore
p1417
I0
sVeloquently
p1418
I0
sVdisingenuously
p1419
I0
sVuncannily
p1420
I0
sVhastily
p1421
I0
sVsatisfyingly
p1422
I0
sVwaggishly
p1423
I0
sVbefore_Christ
p1424
I0
sVwholeheartedly
p1425
I0
sVhalf-and-half
p1426
I0
sVrestively
p1427
I0
sVsnidely
p1428
I0
sVinconspicuously
p1429
I0
sVunco
p1430
I0
sVhygienically
p1431
I0
sVchemically
p1432
I0
sVinevitably
p1433
I0
sVibidem
p1434
I0
sVon_that_point
p1435
I0
sVflat_out
p1436
I0
sVcooperatively
p1437
I0
sVunreasoningly
p1438
I0
sVjust_in_case
p1439
I0
sVsideways
p1440
I0
sVununderstandably
p1441
I0
sVface-to-face
p1442
I0
sVquite
p1443
I0
sVinwardly
p1444
I0
sVroguishly
p1445
I0
sVoffhandedly
p1446
I0
sVintensely
p1447
I0
sVskillfully
p1448
I0
sVtrickily
p1449
I0
sVliberally
p1450
F-0.5589902435942398
sVA.D.
p1451
I0
sVon_the_spur_of_the_moment
p1452
I0
sVundesirably
p1453
I0
sVsalaciously
p1454
I0
sVconvexly
p1455
I0
sVhereupon
p1456
I0
sVthriftily
p1457
I0
sVsensationally
p1458
I0
sVaboard
p1459
I0
sVjust_then
p1460
I0
sVassuredly
p1461
I0
sVfirst
p1462
I0
sVsarcastically
p1463
I0
sVthat_much
p1464
I0
sVimpossibly
p1465
I0
sVunattainably
p1466
I0
sVin_kind
p1467
I0
sVnext_door
p1468
I0
sVpacifically
p1469
I0
sVinsecurely
p1470
I0
sVawfully
p1471
F-0.14977292340381776
sVconscientiously
p1472
I0
sVmerrily
p1473
F10.709171882520852
sVornamentally
p1474
I0
sVpettily
p1475
I0
sVfast
p1476
F0.002818549182627841
sVdirectly
p1477
F-0.00516810277207339
sVnonspecifically
p1478
I0
sVtomorrow
p1479
I0
sVincompetently
p1480
I0
sVcheerfully
p1481
I0
sVvidelicet
p1482
I0
sVharum-scarum
p1483
I0
sVlittle
p1484
I0
sVtruthfully
p1485
I0
sVsolitarily
p1486
I0
sVthirdly
p1487
I0
sVlingeringly
p1488
I0
sVunduly
p1489
I0
sVcortically
p1490
I0
sVremotely
p1491
I0
sVshiftily
p1492
I0
sVmonotonously
p1493
I0
sVfraternally
p1494
I0
sVlegally
p1495
I0
sVextemporaneously
p1496
I0
sVnortheastwardly
p1497
I0
sVgreenly
p1498
I0
sVpressingly
p1499
I0
sVmostly
p1500
I0
sVcharily
p1501
I0
sVaccurately
p1502
I0
sVrelativistically
p1503
I0
sValas
p1504
I0
sVsatirically
p1505
I0
sVarticulately
p1506
I0
sVmawkishly
p1507
I0
sVundoubtedly
p1508
I0
sVpiercingly
p1509
I0
sVintrinsically
p1510
I0
sVwide
p1511
I0
sVrefreshfully
p1512
I0
sVunfortunately
p1513
I0
sVunsportingly
p1514
I0
sVon_the_whole
p1515
I0
sVso-so
p1516
I0
sVplenteously
p1517
I0
sVinexpediently
p1518
I0
sVasleep
p1519
I0
sVunsatisfactorily
p1520
I0
sVin_all_probability
p1521
I0
sVlongingly
p1522
I0
sVdutifully
p1523
I0
sVunprecedentedly
p1524
I0
sVcourteously
p1525
I0
sVlast_but_not_least
p1526
I0
sVhigh-handedly
p1527
I0
sVdynamically
p1528
I0
sVpunctually
p1529
I0
sVslap
p1530
I0
sVanno_Domini
p1531
I0
sVhigh_and_low
p1532
I0
sVtaciturnly
p1533
I0
sVrelevantly
p1534
I0
sVteasingly
p1535
I0
sVfractiously
p1536
I0
sVany
p1537
I0
sVglibly
p1538
I0
sVastonishingly
p1539
I0
sVcomputationally
p1540
I0
sVflippantly
p1541
I0
sVleastways
p1542
I0
sVdownwards
p1543
I0
sVaside
p1544
I0
sVproverbially
p1545
I0
sVsuperfluously
p1546
I0
sVtearfully
p1547
I0
sVduly
p1548
I0
sVunlawfully
p1549
I0
sVunsuitably
p1550
I0
sVunder_the_circumstances
p1551
I0
sVcallously
p1552
I0
sVcreatively
p1553
I0
sVconsiderately
p1554
I0
sVfashionably
p1555
I0
sVpunctiliously
p1556
I0
sVosmotically
p1557
I0
sVandante
p1558
I0
sVcreditably
p1559
I0
sVironically
p1560
I0
sVper_diem
p1561
I0
sVagilely
p1562
I0
sVopposite
p1563
I0
sVcandidly
p1564
I0
sVnow_and_then
p1565
I0
sVout_of
p1566
I0
sVneatly
p1567
I0
sVlike_royalty
p1568
I0
sVimaginatively
p1569
I0
sVtransitorily
p1570
I0
sVde_facto
p1571
I0
sVunattractively
p1572
I0
sVdepartmentally
p1573
I0
sVimportantly
p1574
I0
sVhorridly
p1575
I0
sVfaithlessly
p1576
I0
sVamiably
p1577
I0
sVsupremely
p1578
I0
sVinter_alia
p1579
I0
sVanalytically
p1580
I0
sVclammily
p1581
I0
sVsou'-east
p1582
I0
sVforever
p1583
I0
sVespecially
p1584
I0
sVcaptivatingly
p1585
I0
sVschismatically
p1586
I0
sVraffishly
p1587
I0
sVlater
p1588
I0
sVunwisely
p1589
I0
sVincredibly
p1590
I0
sVgracefully
p1591
I0
sVmedically
p1592
I0
sVproperly
p1593
F0.1033417976245399
sVguiltily
p1594
I0
sVconservatively
p1595
I0
sVself-conceitedly
p1596
I0
sVprettily
p1597
I0
sVwillingly
p1598
I0
sVinquiringly
p1599
I0
sVinefficaciously
p1600
I0
sVin_this
p1601
I0
sVin_vivo
p1602
I0
sVsou'-sou'-west
p1603
I0
sVbright
p1604
I0
sVand_how
p1605
I0
sVresplendently
p1606
I0
sVsurgically
p1607
I0
sVscarce
p1608
I0
sVunassailably
p1609
I0
sVinshore
p1610
I0
sVpainlessly
p1611
I0
sVunenthusiastically
p1612
I0
sVsparely
p1613
I0
sVoverpoweringly
p1614
I0
sVdespairingly
p1615
I0
sVblessedly
p1616
I0
sVplentifully
p1617
I0
sVracily
p1618
I0
sVquestionably
p1619
I0
sVplumb
p1620
F-1.6492674416640008e-07
sVshort
p1621
I0
sVaimlessly
p1622
I0
sVonly
p1623
I0
sVexplicitly
p1624
I0
sVthreefold
p1625
I0
sVsouth-southwest
p1626
I0
sVturbulently
p1627
I0
sVuppermost
p1628
I0
sVpassing
p1629
I0
sVto_the_limit
p1630
I0
sVslimly
p1631
F-7.339655039760813e-05
sVover
p1632
I0
sVplump
p1633
I0
sVmeasuredly
p1634
I0
sVlight-headedly
p1635
I0
sVcorrectly
p1636
F1.7236952255145432
sVjovially
p1637
I0
sVdraggingly
p1638
I0
sVbetween
p1639
I0
sVmortally
p1640
I0
sVstraightforwardly
p1641
I0
sVtruly
p1642
I0
sVbareback
p1643
I0
sVhaptically
p1644
I0
sVearnestly
p1645
F-0.03369488580608
sVdistinctly
p1646
I0
sVgeothermally
p1647
I0
sVdishonourably
p1648
I0
sVtonelessly
p1649
I0
sVaboveboard
p1650
I0
sVsideway
p1651
I0
sVto_a_higher_place
p1652
I0
sVappreciatively
p1653
I0
sVgibingly
p1654
I0
sVmoodily
p1655
I0
sVseldom
p1656
I0
sVsorrowfully
p1657
I0
sVbarefoot
p1658
I0
sVabsurdly
p1659
I0
sVrallentando
p1660
I0
sVrotationally
p1661
I0
sVfierily
p1662
I0
sVlewdly
p1663
I0
sVcf
p1664
I0
sVairily
p1665
I0
sVthrough
p1666
I0
sVphotographically
p1667
I0
sVgushingly
p1668
I0
sVsilently
p1669
I0
sVin_the_beginning
p1670
I0
sVall-fired
p1671
I0
sVculpably
p1672
I0
sVadministratively
p1673
I0
sVphysically
p1674
I0
sVsidesplittingly
p1675
I0
sVaudaciously
p1676
I0
sVab_initio
p1677
I0
sVfatefully
p1678
I0
sVnamely
p1679
I0
sVactively
p1680
I0
sVdisquietingly
p1681
I0
sVanyways
p1682
I0
sVflatly
p1683
I0
sVonce_more
p1684
I0
sVicily
p1685
I0
sVto_both_ears
p1686
I0
sVdefensively
p1687
I0
sVmetabolically
p1688
I0
sVrigidly
p1689
I0
sVreproducibly
p1690
I0
sVostensibly
p1691
I0
sVunharmoniously
p1692
I0
sVnorth-west
p1693
I0
sVoutside
p1694
I0
sVdownriver
p1695
I0
sVvindictively
p1696
I0
sVprecedentedly
p1697
I0
sVineloquently
p1698
I0
sVacross
p1699
I0
sVglossily
p1700
I0
sVpunishingly
p1701
I0
sVinappropriately
p1702
I0
sVdomineeringly
p1703
I0
sVin_good_spirits
p1704
I0
sVjurisprudentially
p1705
I0
sVbelievingly
p1706
I0
sVgratefully
p1707
I0
sVall_day_long
p1708
I0
sVbackward_and_forward
p1709
I0
sVlovingly
p1710
I0
sVharshly
p1711
I0
sVimpromptu
p1712
I0
sVvenomously
p1713
I0
sVdiscursively
p1714
I0
sVclamorously
p1715
F9.437184000000006e-07
sVphilosophically
p1716
I0
sVupside_down
p1717
I0
sVdisrespectfully
p1718
I0
sVmurderously
p1719
I0
sVin_flight
p1720
I0
sVineptly
p1721
I0
sVquiet
p1722
F-1.1796480000000008e-06
sVforthwith
p1723
F-0.007093709629308829
sVdensely
p1724
F1.1796480000000008e-06
sVgovernmentally
p1725
I0
sVsoaking
p1726
I0
sVreluctantly
p1727
I0
sVbanteringly
p1728
I0
sVdisloyally
p1729
I0
sVeuphemistically
p1730
I0
sVnearby
p1731
I0
sVto_a_fault
p1732
I0
sVinvitingly
p1733
I0
sVshamefully
p1734
I0
sVrepulsively
p1735
F0.05000327438951338
sVafterwards
p1736
I0
sVpro_rata
p1737
I0
sVextravagantly
p1738
I0
sVtumultuously
p1739
I0
sVinstructively
p1740
I0
sVpop
p1741
I0
sVfeetfirst
p1742
I0
sVinexpensively
p1743
I0
sVself-indulgently
p1744
I0
sVingenuously
p1745
I0
sVCOD
p1746
I0
sVanisotropically
p1747
I0
sVfour_times
p1748
I0
sVlike_clockwork
p1749
I0
sVmoreover
p1750
I0
sVactually
p1751
I0
sVeach_year
p1752
I0
sVtiresomely
p1753
I0
sVanyplace
p1754
I0
sVdowdily
p1755
I0
sVboringly
p1756
I0
sVconsequentially
p1757
I0
sVmenacingly
p1758
I0
sVdependably
p1759
I0
sVuncharacteristically
p1760
I0
sVadaxially
p1761
I0
sVlocally
p1762
I0
sVmarkedly
p1763
I0
sVmoistly
p1764
I0
sVneedlessly
p1765
I0
sVon_the_dot
p1766
I0
sVfor_each_one
p1767
I0
sVcapably
p1768
I0
sVhardly
p1769
I0
sVsensibly
p1770
F-5.171574861491027e-07
sVscurrilously
p1771
I0
sVwhimsically
p1772
I0
sVlukewarmly
p1773
I0
sVso_far
p1774
I0
sVdevilish
p1775
I0
sVdeliciously
p1776
I0
sVdead_ahead
p1777
I0
sVsturdily
p1778
I0
sVdownwind
p1779
I0
sVsurreptitiously
p1780
I0
sVtopsy-turvy
p1781
I0
sVodiously
p1782
F-0.06200072367786988
sVcoherently
p1783
I0
sVscrupulously
p1784
I0
sVzestily
p1785
I0
sVsoullessly
p1786
I0
sVmajestically
p1787
I0
sVa_fortiori
p1788
I0
sVpenitently
p1789
I0
sVconjointly
p1790
I0
sVagain_and_again
p1791
I0
sVresoundingly
p1792
I0
sVout_of_wedlock
p1793
I0
sVscarily
p1794
I0
sVen_clair
p1795
I0
sVintimately
p1796
F-0.10012657946793495
sVsometime
p1797
I0
sVallegorically
p1798
I0
sVGod_knows_how
p1799
I0
sVirrespective
p1800
I0
sVmillionfold
p1801
I0
sVlanguidly
p1802
I0
sVinanely
p1803
I0
sVpeevishly
p1804
I0
sVthe_least_bit
p1805
I0
sVfor_example
p1806
I0
sVblamelessly
p1807
I0
sVmonstrously
p1808
I0
sVethically
p1809
I0
sVthickly
p1810
F4.1160278016000025e-05
sVgrumpily
p1811
I0
sVone-sidedly
p1812
I0
sVdiffidently
p1813
I0
sVpurportedly
p1814
I0
sVdangerously
p1815
I0
sVimposingly
p1816
I0
sVmodishly
p1817
I0
sVwisely
p1818
I0
sVen_famille
p1819
I0
sVadversely
p1820
I0
sVfrigidly
p1821
I0
sVin_chorus
p1822
I0
sVfrumpishly
p1823
I0
sVnorthward
p1824
I0
sVpat
p1825
I0
sVsinuously
p1826
I0
sVunhelpfully
p1827
I0
sVcircularly
p1828
I0
sVinsofar
p1829
I0
sVscientifically
p1830
I0
sVperpetually
p1831
I0
sVsupra
p1832
I0
sVin_unison
p1833
I0
sVexpediently
p1834
I0
sVloudly
p1835
F4.101872025600003e-05
sVepisodically
p1836
I0
sVtriumphantly
p1837
I0
sVor_else
p1838
I0
sVintentionally
p1839
I0
sVpermissibly
p1840
I0
sVunshakably
p1841
I0
sVdroopingly
p1842
I0
sVblatantly
p1843
I0
sVominously
p1844
I0
sVunmanageably
p1845
I0
sVmaturely
p1846
I0
sVclosest
p1847
I0
sVhaply
p1848
I0
sVthat_is_to_say
p1849
I0
sVwittily
p1850
I0
sVstructurally
p1851
I0
sVdimly
p1852
I0
sVsurlily
p1853
I0
sVdecently
p1854
F0.116314754006474
sVcliquishly
p1855
I0
sVamuck
p1856
I0
sVopulently
p1857
I0
sVtunefully
p1858
I0
sVillicitly
p1859
I0
sVtotally
p1860
I0
sVfor_a_song
p1861
I0
sVmentally
p1862
I0
sVdeferentially
p1863
I0
sVconstitutionally
p1864
I0
sValfresco
p1865
I0
sVlargely
p1866
I0
sVimmeasurably
p1867
I0
sVbefittingly
p1868
I0
sVkillingly
p1869
I0
sVroughly
p1870
F0.00017985163118002404
sVobservably
p1871
I0
sVonly_when
p1872
I0
sVlaughingly
p1873
I0
sVnowise
p1874
I0
sVhinderingly
p1875
I0
sVself-consciously
p1876
I0
sVvery
p1877
I0
sVzigzag
p1878
I0
sVnocturnally
p1879
I0
sVpersistently
p1880
I0
sVinaudibly
p1881
I0
sVcontractually
p1882
I0
sVagainst_the_clock
p1883
I0
sVof_course
p1884
I0
sVof_necessity
p1885
I0
sVlingually
p1886
I0
sVmeteorologically
p1887
I0
sVfor_keeps
p1888
I0
sVlaudably
p1889
I0
sVup_here
p1890
I0
sVmetaphysically
p1891
I0
sVsufficiently
p1892
I0
sVin_spite_of_appearance
p1893
I0
sVweekly
p1894
I0
sVto_that_extent
p1895
I0
sVwilly-nilly
p1896
I0
sVpunitively
p1897
I0
sVunappealingly
p1898
I0
sVpreponderantly
p1899
I0
sVlegitimately
p1900
I0
sVinorganically
p1901
I0
sVsurprisedly
p1902
I0
sVdetrimentally
p1903
I0
sVself-righteously
p1904
I0
sVand_so_on
p1905
I0
sVhereabouts
p1906
I0
sVdryly
p1907
I0
sVinconveniently
p1908
I0
sVhieroglyphically
p1909
I0
sVdully
p1910
I0
sVprominently
p1911
I0
sVelaborately
p1912
I0
sVreal
p1913
I0
sVintolerably
p1914
I0
sVnattily
p1915
I0
sVcurrishly
p1916
I0
sVaround
p1917
F-0.0022334919301033175
sVeasily
p1918
F1.937928497163455
sVon_a_higher_floor
p1919
I0
sVbreast-high
p1920
I0
sVusefully
p1921
I0
sVearly
p1922
F0.005269818147120088
sVdefectively
p1923
I0
sVdisgustedly
p1924
I0
sVbewitchingly
p1925
I0
sVpolitely
p1926
I0
sVhand_to_hand
p1927
I0
sVin_the_bargain
p1928
I0
sVpresentably
p1929
I0
sVright_along
p1930
I0
sVlearnedly
p1931
I0
sVnoncompetitively
p1932
I0
sVexquisitely
p1933
I0
sVdrily
p1934
I0
sVyearly
p1935
I0
sVoddly
p1936
I0
sVannually
p1937
I0
sVcaudal
p1938
I0
sVatrociously
p1939
F-0.08982167930853385
sVeither
p1940
I0
sVfully
p1941
I0
sVcompletely
p1942
I0
sVvoluntarily
p1943
I0
sVsumptuously
p1944
I0
sVdifferentially
p1945
I0
sVevery_night
p1946
I0
sVsimperingly
p1947
I0
sVdisastrously
p1948
I0
sVsentimentally
p1949
I0
sVin_hand
p1950
I0
sVstraight-backed
p1951
I0
sVpointlessly
p1952
I0
sVzealously
p1953
I0
sVunable_to_help
p1954
I0
sVa_trifle
p1955
I0
sVcivilly
p1956
I0
sVpiggishly
p1957
I0
sVperemptorily
p1958
I0
sVinalienably
p1959
I0
sVpneumatically
p1960
I0
sVdauntingly
p1961
I0
sVdefenceless
p1962
I0
sVdoggo
p1963
I0
sVparticularly
p1964
I0
sVpatriotically
p1965
I0
sVtouchily
p1966
I0
sVabortively
p1967
I0
sVgrayly
p1968
I0
sVsemantically
p1969
I0
sVunluckily
p1970
I0
sVdecent
p1971
F0.05596745458920353
sVon_the_one_hand
p1972
I0
sVunsuccessfully
p1973
I0
sVbanefully
p1974
I0
sVparochially
p1975
I0
sVspaceward
p1976
I0
sVuniformly
p1977
I0
sVexultantly
p1978
I0
sVdespicably
p1979
I0
sVdisregardless
p1980
I0
sVnotably
p1981
I0
sVto_a_lower_place
p1982
I0
sVon_camera
p1983
I0
sVcytophotometrically
p1984
I0
sVat_any_rate
p1985
I0
sValee
p1986
I0
sVsquarely
p1987
I0
sVby_no_means
p1988
I0
sVopaquely
p1989
I0
sVbreast-deep
p1990
I0
sVearlier
p1991
I0
sVon
p1992
I0
sVwheezingly
p1993
I0
sVenergetically
p1994
I0
sVbreezily
p1995
I0
sVjoyfully
p1996
F4.739554704261121
sVinstantaneously
p1997
F-0.0004466258055501129
sVpracticably
p1998
I0
sVperson-to-person
p1999
I0
sVunseasonably
p2000
I0
sVlamely
p2001
I0
sVby_design
p2002
I0
sVwhence
p2003
I0
sVgreatly
p2004
I0
sVwest
p2005
I0
sVforthright
p2006
I0
sVnastily
p2007
I0
sVdaringly
p2008
I0
sVgraphically
p2009
I0
sVdiversely
p2010
I0
sVfearsomely
p2011
I0
sVquietly
p2012
F-4.1868066816000025e-05
sVutterly
p2013
I0
sVanarchically
p2014
I0
sVsedulously
p2015
I0
sVin_spades
p2016
I0
sVnumerically
p2017
I0
sVastronomically
p2018
I0
sVunethically
p2019
I0
sVineffably
p2020
I0
sVinside_out
p2021
I0
sVon_paper
p2022
I0
sVselflessly
p2023
I0
sVinsatiably
p2024
I0
sVverily
p2025
I0
sVuptown
p2026
I0
sVlastly
p2027
I0
sVnowadays
p2028
F0.0015548562645388308
sVat_random
p2029
I0
sVtheoretically
p2030
I0
sVtechnically
p2031
I0
sVcomplexly
p2032
I0
sVfrenetically
p2033
I0
sVby_the_way
p2034
I0
sVdisruptively
p2035
I0
sVstrictly
p2036
I0
sVthere
p2037
I0
sVdemoniacally
p2038
I0
sVstylishly
p2039
I0
sVstark
p2040
I0
sVday_by_day
p2041
I0
sVtoo_soon
p2042
F-0.001674214709718418
sVinauspiciously
p2043
I0
sVcompactly
p2044
I0
sVlaboriously
p2045
I0
sVnighest
p2046
I0
sVcosily
p2047
I0
sVforrad
p2048
I0
sVhereof
p2049
I0
sVdigitately
p2050
I0
sVobligatorily
p2051
I0
sVunreliably
p2052
I0
sVverbatim
p2053
I0
sVenough
p2054
I0
sVproportionately
p2055
I0
sVshamelessly
p2056
I0
sVmotherly
p2057
I0
sVfiendishly
p2058
I0
sVsportively
p2059
I0
sVas_much_as_possible
p2060
I0
sVcuriously
p2061
I0
sVall_the_same
p2062
I0
sVbeyond_measure
p2063
I0
sVahorseback
p2064
I0
sVevery_so_often
p2065
I0
sVdownstairs
p2066
I0
sVdorsoventrally
p2067
I0
sVlonger
p2068
I0
sVdaylong
p2069
I0
sVbarebacked
p2070
I0
sVboundlessly
p2071
I0
sVinterrogatively
p2072
I0
sVwholesale
p2073
I0
sVlawfully
p2074
I0
sVquantitatively
p2075
I0
sVtiptoe
p2076
I0
sVvacantly
p2077
I0
sVshallowly
p2078
I0
sVone_after_another
p2079
I0
sVoperationally
p2080
I0
sVevilly
p2081
I0
sVseverally
p2082
I0
sVstonily
p2083
I0
sVpolitically
p2084
I0
sVstrongly
p2085
I0
sVe'er
p2086
I0
sVat_the_worst
p2087
I0
sVfriskily
p2088
I0
sVbrotherly
p2089
I0
sVmultilaterally
p2090
I0
sVmomentarily
p2091
I0
sVbleakly
p2092
I0
sVperennially
p2093
I0
sVimpalpably
p2094
I0
sVdeep
p2095
F-0.005561946072982488
sVgainlessly
p2096
I0
sVas
p2097
I0
sVmultiplicatively
p2098
I0
sVcoterminously
p2099
I0
sVpensively
p2100
I0
sVaccusingly
p2101
I0
sVunimaginatively
p2102
I0
sVunhesitatingly
p2103
I0
sVincautiously
p2104
I0
sVe'en
p2105
I0
sVjudicially
p2106
I0
sVyon
p2107
I0
sVoffside
p2108
I0
sVoptimistically
p2109
I0
sVideally
p2110
I0
sVgoddam
p2111
I0
sVpertinaciously
p2112
I0
sVselfishly
p2113
I0
sVlustily
p2114
I0
sVceaselessly
p2115
I0
sVsympathetically
p2116
I0
sVthither
p2117
I0
sVproductively
p2118
I0
sVtight
p2119
F0.02444388245210023
sVstarkly
p2120
I0
sVraucously
p2121
I0
sVon_an_irregular_basis
p2122
I0
sVgregariously
p2123
I0
sVunthinkingly
p2124
I0
sVbriefly
p2125
I0
sVpalmately
p2126
I0
sVequitably
p2127
I0
sVgarishly
p2128
I0
sVdamnably
p2129
I0
sVinsomuch
p2130
I0
sVfactually
p2131
I0
sVmiddling
p2132
F1.1958369669222552e-05
sVperadventure
p2133
I0
sVsheepishly
p2134
I0
sVkeenly
p2135
I0
sVvocally
p2136
I0
sVidolatrously
p2137
I0
sVcatalytically
p2138
I0
sVunconstitutionally
p2139
I0
sVawkwardly
p2140
I0
sVimminently
p2141
I0
sVmisleadingly
p2142
I0
sVhereunder
p2143
I0
sVto_the_contrary
p2144
I0
sVclinically
p2145
I0
sVloyally
p2146
I0
sVinseparably
p2147
I0
sVoverside
p2148
I0
sVmaliciously
p2149
I0
sVsumma_cum_laude
p2150
I0
sVdistributively
p2151
I0
sVtete_a_tete
p2152
I0
sVat_close_range
p2153
I0
sVtenderly
p2154
I0
sVorad
p2155
I0
sVhugely
p2156
I0
sValright
p2157
I0
sVdumbly
p2158
F-2.3592960000000016e-07
sVsidesaddle
p2159
I0
sVonce
p2160
F0.0004041743206126367
sVscrumptiously
p2161
I0
sVhead-to-head
p2162
I0
sVon_air
p2163
I0
sVexternally
p2164
I0
sVcontemporaneously
p2165
I0
sVover_again
p2166
I0
sVpost_meridiem
p2167
I0
sVclose_to_the_wind
p2168
I0
sVwhen_the_time_comes
p2169
I0
sVspinally
p2170
I0
sVcombatively
p2171
I0
sVangelically
p2172
I0
sVin_perpetuity
p2173
I0
sVinvariably
p2174
I0
sVpejoratively
p2175
I0
sVobdurately
p2176
I0
sVnor'-east
p2177
I0
sVvictoriously
p2178
I0
sVimmutably
p2179
I0
sVmelodically
p2180
I0
sVin_great_confusion
p2181
I0
sVpedantically
p2182
I0
sVinexhaustibly
p2183
I0
sVfundamentally
p2184
I0
sVsmall-mindedly
p2185
I0
sVsceptically
p2186
I0
sVcoldly
p2187
I0
sVin_the_main
p2188
I0
sVunenergetically
p2189
I0
sVviz.
p2190
I0
sVcussedly
p2191
I0
sVillustriously
p2192
I0
sVingratiatingly
p2193
I0
sVin_detail
p2194
I0
sVpatently
p2195
I0
sVworse
p2196
I0
sVmanageably
p2197
I0
sVfar
p2198
I0
sVobservingly
p2199
I0
sVunambitiously
p2200
I0
sVstanchly
p2201
I0
sVreprehensively
p2202
I0
sVworst
p2203
I0
sVindubitably
p2204
I0
sVbelow_the_belt
p2205
F2.061584302080001e-07
sVawful
p2206
F0.3924516171835558
sVmonolingually
p2207
I0
sVhumourlessly
p2208
I0
sVcunningly
p2209
I0
sVsecurely
p2210
F0.0006949306368000003
sVheedfully
p2211
I0
sVhead_over_heels
p2212
I0
sVlethargically
p2213
I0
sVorganizationally
p2214
I0
sVbacterially
p2215
I0
sVthereinafter
p2216
I0
sVin_no_time
p2217
I0
sVshoulder-to-shoulder
p2218
I0
sVfor_anything
p2219
I0
sVinsufficiently
p2220
I0
sVintricately
p2221
I0
sVlarge
p2222
I0
sVinterracially
p2223
I0
sVbiyearly
p2224
I0
sVsmall
p2225
I0
sVlargo
p2226
I0
sVsenselessly
p2227
I0
sVeconomically
p2228
I0
sVfamiliarly
p2229
I0
sVinopportunely
p2230
I0
sVdesignedly
p2231
I0
sVin_case
p2232
I0
sVaffably
p2233
I0
sVsomberly
p2234
I0
sVhonourably
p2235
I0
sVfederally
p2236
I0
sVhereto
p2237
I0
sVviscerally
p2238
I0
sVvolcanically
p2239
I0
sVto_the_lowest_degree
p2240
F0.00019110721553537436
sVpast
p2241
I0
sVamiss
p2242
I0
sVquaintly
p2243
I0
sVgayly
p2244
F-1.5691051484417238
sVfortissimo
p2245
I0
sVfurther
p2246
I0
sVdeathly
p2247
I0
sVaptly
p2248
I0
sVin_person
p2249
I0
sVthievishly
p2250
I0
sVcausally
p2251
I0
sVsweetly
p2252
I0
sVdispassionately
p2253
I0
sVsingularly
p2254
I0
sVportentously
p2255
I0
sVunexcitingly
p2256
I0
sVon_all_fours
p2257
I0
sVcum_laude
p2258
I0
sVurbanely
p2259
I0
sVcontumaciously
p2260
I0
sVimperceptibly
p2261
I0
sVundecipherably
p2262
I0
sVslopingly
p2263
I0
sVreceptively
p2264
I0
sVdaily
p2265
I0
sVnot_by_a_long_sight
p2266
I0
sVbasely
p2267
I0
sVoff-the-clock
p2268
I0
sVindistinctly
p2269
I0
sVunwaveringly
p2270
F0.0005309359718400003
sVloose
p2271
I0
sVtoppingly
p2272
F-0.36831915044058916
sVsupposedly
p2273
I0
sVin_one_ear
p2274
I0
sVdeceitfully
p2275
I0
sVhalfway
p2276
I0
sVaffectionately
p2277
I0
sVuntruly
p2278
I0
sVraggedly
p2279
I0
sVcompulsorily
p2280
I0
sVconsolingly
p2281
I0
sVin_name_only
p2282
I0
sVcontrastingly
p2283
I0
sVsanctimoniously
p2284
I0
sVprovably
p2285
I0
sVahead
p2286
I0
sVmutatis_mutandis
p2287
I0
sVgiddily
p2288
I0
sVexceptionally
p2289
I0
sVunsentimentally
p2290
I0
sVopenly
p2291
I0
sVinfrequently
p2292
I0
sVidentifiably
p2293
I0
sVmusically
p2294
I0
sVtemperately
p2295
I0
sVbonnily
p2296
I0
sVmagniloquently
p2297
I0
sVunpatriotically
p2298
I0
sVtranquilly
p2299
I0
sVpopishly
p2300
I0
sVuniquely
p2301
I0
sVad_hoc
p2302
I0
sVproblematically
p2303
I0
sVmidmost
p2304
I0
sVcalumniously
p2305
I0
sVthankfully
p2306
I0
sVdamned
p2307
I0
sVsuddenly
p2308
I0
sVverbally
p2309
I0
sVexcellently
p2310
I0
sVindoors
p2311
I0
sVfatuously
p2312
I0
sVprofitlessly
p2313
I0
sVdottily
p2314
I0
sVinadequately
p2315
I0
sVreadily
p2316
F0.056972693679351795
sVunthinkably
p2317
I0
sVunchivalrously
p2318
I0
sVobstructively
p2319
I0
sVphonemic
p2320
I0
sVseaward
p2321
I0
sVravishingly
p2322
I0
sVpraiseworthily
p2323
I0
sVforcefully
p2324
I0
sVprestissimo
p2325
I0
sVpiggyback
p2326
I0
sVbaby-like
p2327
I0
sVwholesomely
p2328
I0
sVdoubtlessly
p2329
I0
sVa_hundred_times
p2330
I0
sVunconcernedly
p2331
I0
sVwhat_is_more
p2332
I0
sVlike_an_expert
p2333
I0
sVslangily
p2334
I0
sVmore
p2335
I0
sVflat
p2336
F-0.0047519744523166225
sVinsanely
p2337
F5.404319552844596e-08
sVbit_by_bit
p2338
I0
sVtherewithal
p2339
I0
sVhandsomely
p2340
I0
sVthus
p2341
I0
sVpianissimo
p2342
I0
sVlopsidedly
p2343
I0
sVphlegmatically
p2344
I0
sVsurprisingly
p2345
I0
sVmutely
p2346
I0
sVp.a.
p2347
I0
sVjocosely
p2348
I0
sVsmashingly
p2349
I0
sVthis_night
p2350
I0
sVregrettably
p2351
I0
sVmellow
p2352
I0
sVfirst_class
p2353
I0
sVcoincidently
p2354
I0
sVwillfully
p2355
I0
sVnone
p2356
I0
sVcarelessly
p2357
I0
sVpiecemeal
p2358
I0
sVleastwise
p2359
I0
sVon_the_side
p2360
I0
sVartlessly
p2361
I0
sVsulkily
p2362
I0
sVantithetically
p2363
I0
sVmeanderingly
p2364
I0
sVgive_or_take
p2365
I0
sVinconsequently
p2366
I0
sVgeologically
p2367
I0
sVcanonically
p2368
I0
sVprecociously
p2369
I0
sVabsently
p2370
I0
sVfrom_nowhere
p2371
I0
sVabaft
p2372
I0
sVlineally
p2373
I0
sVdisjointedly
p2374
I0
sVunassertively
p2375
I0
sVbravely
p2376
I0
sVoftener
p2377
I0
sVsure_enough
p2378
I0
sVcryptographically
p2379
I0
sVpro
p2380
I0
sVallegro
p2381
I0
sVobliquely
p2382
I0
sVfiercely
p2383
I0
sVshrewishly
p2384
I0
sVdubiously
p2385
I0
sVsequentially
p2386
I0
sVsharp
p2387
I0
sVfrontwards
p2388
I0
sVnigher
p2389
I0
sVgenuinely
p2390
I0
sVfirmly
p2391
F-0.002589917184000001
sVnarrowly
p2392
I0
sVdistastefully
p2393
I0
sVat_heart
p2394
I0
sVfecklessly
p2395
I0
sVrather
p2396
I0
sVindigenously
p2397
I0
sVat_first_hand
p2398
I0
sVsecond-best
p2399
I0
sVunsystematically
p2400
I0
sVbiennially
p2401
I0
sVoccasionally
p2402
I0
sVpossibly
p2403
I0
sVwackily
p2404
I0
sVagainst_the_wind
p2405
I0
sVtreacherously
p2406
I0
sVat_the_most
p2407
I0
sVcontroversially
p2408
I0
sVnon-verbally
p2409
I0
sVokay
p2410
I0
sVcopiously
p2411
I0
sVinconceivably
p2412
I0
sVlangsyne
p2413
I0
sVin_a_pig's_eye
p2414
I0
sVabsentmindedly
p2415
I0
sVspectacularly
p2416
I0
sVhaggardly
p2417
I0
sVvauntingly
p2418
I0
sVerroneously
p2419
I0
sVshowily
p2420
I0
sVobtrusively
p2421
I0
sVwild
p2422
I0
sVsqueamishly
p2423
I0
sVdiabolically
p2424
I0
sVinimitably
p2425
I0
sVtogether_with
p2426
I0
sVper_se
p2427
I0
sVin_the_south
p2428
I0
sVchiefly
p2429
I0
sVimpermissibly
p2430
I0
sVuninformatively
p2431
I0
sVunreservedly
p2432
I0
sVnonchalantly
p2433
I0
sVanimatedly
p2434
I0
sVovernight
p2435
I0
sVinto_the_wind
p2436
I0
sVin_particular
p2437
I0
sVcross-legged
p2438
I0
sVmultifariously
p2439
I0
sVexcruciatingly
p2440
I0
sVirately
p2441
I0
sVhelplessly
p2442
I0
sVeverlastingly
p2443
I0
sVallegretto
p2444
I0
sVplenarily
p2445
I0
sVincessantly
p2446
I0
sVanachronistically
p2447
I0
sVannoyingly
p2448
I0
sVsoon
p2449
I0
sVuntypically
p2450
I0
sVendways
p2451
I0
sValready
p2452
I0
sVquestioningly
p2453
I0
sVhelpfully
p2454
I0
sVvenally
p2455
I0
sVsleepily
p2456
I0
sVjust_now
p2457
I0
sVintermediately
p2458
I0
sVclumsily
p2459
I0
sVintelligently
p2460
I0
sVcursively
p2461
I0
sVenvironmentally
p2462
I0
sVpostoperatively
p2463
I0
sVdestructively
p2464
I0
sVhand_in_glove
p2465
I0
sVpassim
p2466
I0
sVrapidly
p2467
F0.20592574853669238
sVforwards
p2468
I0
sVinjudiciously
p2469
I0
sVfulsomely
p2470
I0
sVpronto
p2471
F0.28245198339818517
sVinward
p2472
I0
sVseasonally
p2473
I0
sVlate
p2474
F-0.02811127304602538
sVpresently
p2475
I0
sVtruculently
p2476
I0
sVoperatively
p2477
I0
sVebulliently
p2478
I0
sVbefore_long
p2479
I0
sVtentatively
p2480
I0
sVhydraulically
p2481
I0
sVgood
p2482
F-0.0961916738357166
sVegotistically
p2483
I0
sVgenerously
p2484
F2.1956783357951997
sVfortnightly
p2485
I0
sVsecondarily
p2486
I0
sVpathologically
p2487
I0
sVlong_since
p2488
I0
sVmorphologically
p2489
I0
sVin_and_of_itself
p2490
I0
sVindefatigably
p2491
I0
sVsomeways
p2492
I0
sVunfeignedly
p2493
I0
sVetcetera
p2494
I0
sVsubcutaneously
p2495
I0
sVdesperately
p2496
I0
sVand_then
p2497
I0
sVhereafter
p2498
I0
sVunswervingly
p2499
I0
sVtopsy-turvily
p2500
I0
sValways
p2501
I0
sVviscidly
p2502
I0
sVthree_times
p2503
I0
sVyou_bet
p2504
I0
sVsecond_class
p2505
I0
sVoppositely
p2506
I0
sVlet_alone
p2507
I0
sVpiping
p2508
I0
sVfor_all_the_world
p2509
I0
sVarduously
p2510
I0
sVinordinately
p2511
I0
sVC.E.
p2512
I0
sVonly_if
p2513
I0
sVscot_free
p2514
I0
sVphysiologically
p2515
I0
sVheavy
p2516
F-0.002133970462965761
sVupstairs
p2517
I0
sVyearningly
p2518
I0
sVvisually
p2519
I0
sVriskily
p2520
I0
sVto_each_one
p2521
I0
sVdeep_down
p2522
I0
sVin_short
p2523
I0
sVtreasonably
p2524
I0
sVnow_and_again
p2525
I0
sVunbecomingly
p2526
I0
sVvis-a-vis
p2527
I0
sVbroadly_speaking
p2528
I0
sVbeyond
p2529
I0
sVimmensely
p2530
I0
sVreally
p2531
I0
sVfrom_each_one
p2532
I0
sVoff_and_on
p2533
I0
sVdecoratively
p2534
I0
sVin_essence
p2535
I0
sVnutritionally
p2536
I0
sVto_a_lesser_extent
p2537
I0
sVsparingly
p2538
F-5.790505947680452e-06
sVtrivially
p2539
I0
sVslanderously
p2540
I0
sVdejectedly
p2541
I0
sVstagily
p2542
I0
sVstingily
p2543
I0
sVwithout_doubt
p2544
I0
sVrhythmically
p2545
I0
sVsnappishly
p2546
I0
sVunfailingly
p2547
I0
sVhenceforward
p2548
I0
sVbreadthways
p2549
I0
sVnervously
p2550
I0
sVwarm
p2551
I0
sVlaughably
p2552
I0
sVterritorially
p2553
I0
sVBC
p2554
I0
sVstridently
p2555
I0
sVninefold
p2556
I0
sVpost-free
p2557
I0
sVmanifestly
p2558
I0
sVabnormally
p2559
I0
sVgreasily
p2560
I0
sVpoignantly
p2561
I0
sVafter_a_fashion
p2562
I0
sVecologically
p2563
I0
sVmonosyllabically
p2564
I0
sVearliest
p2565
I0
sVtastelessly
p2566
I0
sVdevilishly
p2567
I0
sVin_loco_parentis
p2568
I0
sVfearfully
p2569
I0
sVtorpidly
p2570
I0
sVrowdily
p2571
I0
sVbrazenly
p2572
I0
sVsix_times
p2573
I0
sVterribly
p2574
F-1.5274364542898209
sVuncertainly
p2575
I0
sVexponentially
p2576
I0
sVperceptibly
p2577
I0
sVsecond_hand
p2578
I0
sVtransitively
p2579
I0
sVavariciously
p2580
I0
sVblasphemously
p2581
I0
sVvolumetrically
p2582
I0
sVregimentally
p2583
I0
sVsolidly
p2584
I0
sVirreverently
p2585
I0
sVaborad
p2586
I0
sVto_a_great_extent
p2587
F-0.002133970462965761
sVfourthly
p2588
I0
sVin_name
p2589
I0
sVtemperamentally
p2590
I0
sVmistakenly
p2591
I0
sVthereafter
p2592
I0
sVchintzily
p2593
I0
sVbrutally
p2594
I0
sVmalapropos
p2595
I0
sVscandalously
p2596
I0
sVspiritually
p2597
I0
sVin_the_lurch
p2598
I0
sVfirst_off
p2599
I0
sVin_a_broad_way
p2600
I0
sVnorth-east
p2601
I0
sVprohibitively
p2602
I0
sVprecariously
p2603
I0
sVstragglingly
p2604
I0
sVshudderingly
p2605
I0
sVfaultlessly
p2606
I0
sVharmlessly
p2607
I0
sVex_officio
p2608
I0
sVroomily
p2609
I0
sVmercilessly
p2610
I0
sVargumentatively
p2611
I0
sVmoderately
p2612
F8.152537304886035e-06
sVleast
p2613
F-0.0006535461896768717
sVmordaciously
p2614
I0
sVfor_all_intents_and_purposes
p2615
I0
sVforevermore
p2616
I0
sVreflexly
p2617
I0
sVfruitfully
p2618
I0
sVpleasantly
p2619
I0
sVon_the_Q.T.
p2620
I0
sVpeaceably
p2621
I0
sVdashingly
p2622
I0
sVfervidly
p2623
I0
sVcreakingly
p2624
I0
sVgleefully
p2625
F-1.2425155723263999
sVbehind
p2626
F0.10242265259458952
sVfavorably
p2627
I0
sVsportingly
p2628
I0
sVsoundlessly
p2629
I0
sVindecisively
p2630
I0
sVdepressingly
p2631
I0
sVsketchily
p2632
I0
sVpusillanimously
p2633
I0
sVendlessly
p2634
I0
sVex_cathedra
p2635
I0
sVcreakily
p2636
I0
sVeastwards
p2637
I0
sVinadvisably
p2638
I0
sVcritically
p2639
I0
sVkindly
p2640
I0
sVcentennially
p2641
I0
sVfixedly
p2642
I0
sVat_the_same_time
p2643
I0
sVimpersonally
p2644
I0
sVautocratically
p2645
I0
sVper_year
p2646
I0
sVdoubly
p2647
I0
sVvalorously
p2648
I0
sVoutdoors
p2649
I0
sVloosely
p2650
I0
sVabysmally
p2651
F0.04776569297902916
sVout_of_thin_air
p2652
I0
sVvulnerably
p2653
I0
sVmaniacally
p2654
I0
sVbasically
p2655
I0
sVjustly
p2656
F-0.0009496986366890076
sVidiotically
p2657
I0
sVurgently
p2658
I0
sValongside
p2659
I0
sVbeforehand
p2660
I0
sVex_tempore
p2661
I0
sVdreamily
p2662
I0
sVrandomly
p2663
I0
sVmayhap
p2664
I0
sVforgetfully
p2665
I0
sVmandatorily
p2666
I0
sVin_stages
p2667
I0
sValike
p2668
I0
sVradioactively
p2669
I0
sVat_that_place
p2670
I0
sVpacifistically
p2671
I0
sVsagaciously
p2672
I0
sVhopelessly
p2673
I0
sVdrop-dead
p2674
I0
sVadrift
p2675
I0
sVirregularly
p2676
I0
sVboorishly
p2677
I0
sVpallidly
p2678
I0
sVvengefully
p2679
I0
sVfreakishly
p2680
I0
sValso
p2681
I0
sVempirically
p2682
I0
sVby_chance
p2683
I0
sVfar_and_near
p2684
I0
sVuncommonly
p2685
I0
sVgenetically
p2686
I0
sVin_everyone's_thoughts
p2687
I0
sVin_short_order
p2688
I0
sVin_situ
p2689
I0
sVdefencelessly
p2690
I0
sVsine_die
p2691
I0
sVlike_sin
p2692
I0
sVperspicuously
p2693
I0
sVextraordinarily
p2694
I0
sVspeciously
p2695
I0
sVhourly
p2696
I0
sVfirsthand
p2697
I0
sVendearingly
p2698
I0
sVdeceivingly
p2699
I0
sVswiftly
p2700
I0
sVno_more
p2701
I0
sVunceremoniously
p2702
I0
sVconspicuously
p2703
I0
sVmost
p2704
F0.0008586116228655738
sVat_arm's_length
p2705
I0
sVirreversibly
p2706
I0
sVnothing
p2707
I0
sVdiametrically
p2708
I0
sVextremely
p2709
I0
sVunremarkably
p2710
I0
sVin_his_own_right
p2711
I0
sVconstrainedly
p2712
I0
sVqueasily
p2713
I0
sVneck_and_neck
p2714
I0
sVoffensively
p2715
I0
sVviciously
p2716
I0
sVfree_of_charge
p2717
I0
sVquaveringly
p2718
I0
sVfrumpily
p2719
I0
sVfiscally
p2720
I0
sVdelightedly
p2721
I0
sVinsipidly
p2722
I0
sVpoisonously
p2723
I0
sVunreasonably
p2724
F8.303626074691211e-07
sVin_the_adjacent_house
p2725
I0
sVpart
p2726
I0
sVclean
p2727
F1.0307921510400004e-06
sVin_its_own_right
p2728
I0
sVsociolinguistically
p2729
I0
sVin_earnest
p2730
F-0.019191612964864005
sVto_begin_with
p2731
I0
sVperceptively
p2732
I0
sVheaps
p2733
I0
sVon_occasion
p2734
I0
sVheart_and_soul
p2735
I0
sVprovidentially
p2736
I0
sVpettishly
p2737
I0
sVblindly
p2738
I0
sVunrepentantly
p2739
I0
sVinflexibly
p2740
I0
sVchromatically
p2741
I0
sVmeticulously
p2742
I0
sVlike_mad
p2743
I0
sVimpressively
p2744
I0
sVin_front
p2745
I0
sVcarefully
p2746
I0
sVtopically
p2747
I0
sVchock
p2748
I0
sVfine
p2749
I0
sVstepwise
p2750
I0
sVjust_right
p2751
I0
sVmunificently
p2752
F-0.125110738747392
sVin_private
p2753
I0
sVon_an_individual_basis
p2754
I0
sVat_length
p2755
I0
sVpar_excellence
p2756
I0
sVcoaxingly
p2757
I0
sVtheologically
p2758
I0
sVcompetently
p2759
I0
sVone_time
p2760
F-0.0004167634459546457
sVunjustly
p2761
I0
sVspitefully
p2762
I0
sVpositively
p2763
I0
sVpretty
p2764
F3.604569596591769e-06
sVconcisely
p2765
I0
sVand_so
p2766
I0
sVhomeostatically
p2767
I0
sVunpardonably
p2768
I0
sVlazily
p2769
I0
sVderisorily
p2770
I0
sVmidships
p2771
I0
sVidiomatically
p2772
I0
sVinterminably
p2773
I0
sVmeanwhile
p2774
I0
sVmangily
p2775
I0
sVexpress
p2776
I0
sVunconventionally
p2777
I0
sVimpregnably
p2778
I0
sVexplosively
p2779
I0
sVhereabout
p2780
I0
sVfastest
p2781
I0
sVclosely
p2782
F-0.04551861632256362
sVcharmingly
p2783
I0
sVbinaurally
p2784
I0
sVreputably
p2785
I0
sVsixfold
p2786
I0
sVintractably
p2787
I0
sVlegibly
p2788
I0
sVon_the_nose
p2789
I0
sVinsensibly
p2790
I0
sVthereabouts
p2791
I0
sVlusciously
p2792
I0
sVparenthetically
p2793
I0
sVracially
p2794
I0
sVshaggily
p2795
I0
sVdisregarding
p2796
I0
sVat_once
p2797
F0.008637291373420649
sVcynically
p2798
I0
sVimploringly
p2799
I0
sVdouble
p2800
I0
sVunwarrantably
p2801
I0
sVprissily
p2802
I0
sVbaldly
p2803
I0
sVsemiannually
p2804
I0
sVwrongfully
p2805
I0
sVconsciously
p2806
I0
sVas_a_group
p2807
I0
sVin_the_least
p2808
I0
sVunqualifiedly
p2809
I0
sVexcusably
p2810
I0
sVwatchfully
p2811
I0
sVplausibly
p2812
I0
sVby_small_degrees
p2813
I0
sVintermittently
p2814
I0
sVamorously
p2815
I0
sVcollectively
p2816
I0
sVhand_over_fist
p2817
I0
sVmanly
p2818
I0
sVat_one_time
p2819
F-0.009813020908615614
sVoutwardly
p2820
I0
sVoverboard
p2821
I0
sVcleverly
p2822
I0
sVclose
p2823
F-0.01796600564173016
sVmaterially
p2824
I0
sVoutward
p2825
I0
sVout_of_hand
p2826
I0
sVakimbo
p2827
I0
sVmechanically
p2828
I0
sVaxially
p2829
I0
sVcurrently
p2830
I0
sVplease
p2831
I0
sVunmistakably
p2832
I0
sVon_that
p2833
I0
sVtoe-to-toe
p2834
I0
sVfor_the_first_time
p2835
I0
sVinelegantly
p2836
I0
sVin_stride
p2837
I0
sVdisinterestedly
p2838
I0
sVprobably
p2839
I0
sVprodigally
p2840
I0
sVacutely
p2841
I0
sVtactically
p2842
I0
sVsolo
p2843
I0
sVpathogenically
p2844
I0
sVrecently
p2845
F0.0019572152904453848
sVstatistically
p2846
I0
sVnotoriously
p2847
I0
sVinitially
p2848
I0
sVretentively
p2849
I0
sVamidships
p2850
I0
sVat_home
p2851
I0
sVtrustingly
p2852
I0
sVdandily
p2853
I0
sVscrappily
p2854
I0
sVselectively
p2855
I0
sVby_right_of_office
p2856
I0
sVfluently
p2857
I0
sVproportionally
p2858
I0
sVabruptly
p2859
I0
sVadagio
p2860
I0
sVfull-time
p2861
I0
sVindiscriminately
p2862
I0
sVprovocatively
p2863
I0
sVcircumstantially
p2864
I0
sVanatomically
p2865
I0
sVdistinctively
p2866
I0
sVin_return
p2867
I0
sVoversea
p2868
I0
sVsombrely
p2869
I0
sVanon
p2870
I0
sVunthinking
p2871
I0
sVdisplaying_incompetence
p2872
I0
sVtangibly
p2873
I0
sVafar
p2874
I0
sVblissfully
p2875
I0
sVunmusically
p2876
I0
sVin_a_higher_place
p2877
I0
sVlustfully
p2878
I0
sVamateurishly
p2879
I0
sVonward
p2880
I0
sVknee-deep
p2881
I0
sVin_on
p2882
I0
sVambitiously
p2883
I0
sVsweet
p2884
I0
sVasymptotically
p2885
I0
sVindividualistically
p2886
I0
sVno_matter
p2887
I0
sVdespitefully
p2888
I0
sVendwise
p2889
I0
sVregretfully
p2890
I0
sVhomogeneously
p2891
I0
sVsimply
p2892
I0
sVhostilely
p2893
I0
sVthroughout
p2894
I0
sVrearwards
p2895
I0
sVriotously
p2896
I0
sVroaring
p2897
I0
sVunderhandedly
p2898
I0
sVanteriorly
p2899
I0
sVskittishly
p2900
I0
sVunarguably
p2901
I0
sVdrippily
p2902
I0
sVuncritically
p2903
I0
sVfaithfully
p2904
I0
sVapprehensively
p2905
I0
sVdamn
p2906
I0
sVfocally
p2907
I0
sVmockingly
p2908
I0
sVskyward
p2909
I0
sVirrelevantly
p2910
I0
sVfirm
p2911
F-9.437184000000004e-05
sVfraudulently
p2912
I0
sVpartly
p2913
I0
sVuncouthly
p2914
I0
sVlatterly
p2915
F0.008569340855720087
sVmundanely
p2916
I0
sVenchantingly
p2917
I0
sVunspeakably
p2918
I0
sVdoggedly
p2919
I0
sVby_the_bye
p2920
I0
sVchastely
p2921
I0
sVvaguely
p2922
I0
sVdiffusely
p2923
I0
sVtartly
p2924
I0
sVinsinuatingly
p2925
I0
sVfaddishly
p2926
I0
sVunnecessarily
p2927
I0
sVbaby-wise
p2928
I0
sVother_than
p2929
I0
sVsmolderingly
p2930
I0
sVdaftly
p2931
I0
sVslyly
p2932
I0
sVpenetratingly
p2933
I0
sVindefinitely
p2934
I0
sVstraight
p2935
F-0.0018090024102612832
sVcrossways
p2936
I0
sVhilariously
p2937
I0
sVideographically
p2938
I0
sVinformatively
p2939
I0
sVreliably
p2940
I0
sVat_least
p2941
I0
sVecstatically
p2942
I0
sVcoyly
p2943
I0
sVid_est
p2944
I0
sVunaccompanied
p2945
I0
sVincognito
p2946
I0
sVgenteelly
p2947
I0
sVbilingually
p2948
I0
sVconcurrently
p2949
I0
sVad_infinitum
p2950
I0
sVstickily
p2951
I0
sVirresolutely
p2952
I0
sVheroically
p2953
I0
sVviolently
p2954
I0
sVperilously
p2955
I0
sVherein
p2956
I0
sVprobabilistically
p2957
I0
sVin_due_time
p2958
I0
sVthereunder
p2959
I0
sVstubbornly
p2960
I0
sVbeautifully
p2961
I0
sVgrubbily
p2962
I0
sVimpracticably
p2963
I0
sVspeechlessly
p2964
I0
sVwryly
p2965
I0
sVinspirationally
p2966
I0
sVconversationally
p2967
I0
sVtwofold
p2968
I0
sVquite_a
p2969
I0
sVretroactively
p2970
I0
sVconceptually
p2971
I0
sVinfernally
p2972
I0
sVpassably
p2973
F5.561243158404671e-06
sVpreferentially
p2974
I0
sVhellishly
p2975
I0
sVnorthwestwardly
p2976
I0
sVunsmilingly
p2977
I0
sVvirtually
p2978
F-0.04275067970409912
sVwidely
p2979
I0
sVerectly
p2980
I0
sVsupernaturally
p2981
I0
sVunnoticeably
p2982
I0
sVright_on
p2983
F0.046574833810355286
sVscorching
p2984
I0
sVgrandiosely
p2985
I0
sVvoraciously
p2986
I0
sVtunelessly
p2987
I0
sVappreciably
p2988
I0
sVintemperately
p2989
F0.004207918490583041
sVyesterday
p2990
I0
sVunselfconsciously
p2991
I0
sVusually
p2992
I0
sVtraditionally
p2993
I0
sVpro_re_nata
p2994
I0
sVuneasily
p2995
I0
sVout_of_view
p2996
I0
sVnoticeably
p2997
I0
sVorganically
p2998
I0
sVat_an_equal_rate
p2999
I0
sVbestially
p3000
I0
sVdistressingly
p3001
I0
sVherewith
p3002
I0
sVdreamfully
p3003
I0
sVmistily
p3004
I0
sVobviously
p3005
I0
sVbeyond_a_shadow_of_a_doubt
p3006
I0
sVpresumptively
p3007
I0
sVa_million_times
p3008
I0
sVthirdhand
p3009
I0
sVuproariously
p3010
I0
sVimpotently
p3011
I0
sVonce_again
p3012
I0
sVahead_of_the_game
p3013
I0
sVbeyond_a_doubt
p3014
I0
sVnuttily
p3015
I0
sVauthoritatively
p3016
I0
sVwell-timed
p3017
I0
sVdiscourteously
p3018
I0
sVinarticulately
p3019
I0
sVfourfold
p3020
I0
sVplaguey
p3021
I0
sVirritably
p3022
I0
sVnonlexically
p3023
I0
sVredly
p3024
I0
sVprofoundly
p3025
F-0.00045454220041817966
sVwhopping
p3026
I0
sVrestlessly
p3027
I0
sVignobly
p3028
I0
sVgood_and
p3029
I0
sVcomprehensively
p3030
I0
sVimmediately
p3031
F-0.00938357263134927
sVnot_to_mention
p3032
I0
sVspatially
p3033
I0
sVsou'west
p3034
I0
sVuselessly
p3035
I0
sVtactlessly
p3036
I0
sVfrom_head_to_toe
p3037
I0
sVlaterally
p3038
I0
sVservilely
p3039
I0
sVdown_the_stairs
p3040
I0
sVsevenfold
p3041
I0
sVunsatiably
p3042
I0
sVexclusively
p3043
I0
sVspeedily
p3044
F0.07767583023946195
sVprovincially
p3045
I0
sVdeliberately
p3046
I0
sVnonetheless
p3047
I0
sVsemimonthly
p3048
I0
sVjudiciously
p3049
I0
sVenthrallingly
p3050
I0
sVby_word_of_mouth
p3051
I0
sVflabbily
p3052
I0
sVridiculously
p3053
I0
sVfloridly
p3054
I0
sVfabulously
p3055
I0
sVintradermally
p3056
I0
sVvertically
p3057
I0
sVdeterminedly
p3058
I0
sVverbosely
p3059
I0
sVat_a_lower_place
p3060
I0
sVenthusiastically
p3061
I0
sVdichotomously
p3062
I0
sVfrom_pillar_to_post
p3063
I0
sVdearly
p3064
I0
sVstirringly
p3065
I0
sVscantily
p3066
I0
sVtestily
p3067
I0
sVin_camera
p3068
I0
sVcompetitively
p3069
I0
sVthrough_an_experiment
p3070
I0
sVconfidentially
p3071
I0
sVoutright
p3072
F0.0016411632944819759
sVOK
p3073
I0
sVtangentially
p3074
I0
sVimmorally
p3075
I0
sVsystematically
p3076
I0
sVadmittedly
p3077
I0
sVinterestingly
p3078
I0
sVany_longer
p3079
I0
sVstraightaway
p3080
F-0.04658745720628299
sVmistrustfully
p3081
I0
sVin_low_spirits
p3082
I0
sVseparately
p3083
I0
sVroyally
p3084
I0
sVto_that_degree
p3085
I0
sVgarrulously
p3086
I0
sVmore_or_less
p3087
F-0.00014369652073958705
sVamok
p3088
I0
sVsingle-mindedly
p3089
I0
sVtopologically
p3090
I0
sVmendaciously
p3091
I0
sVnaughtily
p3092
F-0.05332621036489802
sVsidewise
p3093
I0
sVamicably
p3094
I0
sVirresistibly
p3095
I0
sVdizzily
p3096
I0
sVall_too
p3097
I0
sVfucking
p3098
I0
sVgoddamn
p3099
I0
sVabundantly
p3100
I0
sVback
p3101
I0
sVcollectedly
p3102
I0
sVpredictably
p3103
I0
sVclose_to
p3104
F-0.0012808325007840383
sVfavourably
p3105
I0
sVmighty
p3106
F0.05127855473089935
sVhurriedly
p3107
I0
sVbloodily
p3108
I0
sVfor_one
p3109
I0
sVtransversely
p3110
I0
sVdemeaningly
p3111
I0
sVsternly
p3112
F0.01984428343621562
sVbut_then
p3113
I0
sVdrunkenly
p3114
I0
sVslantwise
p3115
I0
sVbeneficially
p3116
I0
sVrapaciously
p3117
I0
sVroundly
p3118
I0
sVprudishly
p3119
I0
sVconditionally
p3120
I0
sVgratifyingly
p3121
I0
sVintramuscularly
p3122
I0
sVjokingly
p3123
I0
sVnorth-northeast
p3124
I0
sVaccelerando
p3125
I0
sVevery_year
p3126
I0
sVresolutely
p3127
I0
sVdismally
p3128
F0.022567353825521188
sVoverly
p3129
I0
sVvacuously
p3130
I0
sVstodgily
p3131
I0
sVsensuously
p3132
I0
sVin_the_long_run
p3133
I0
sVmomentously
p3134
I0
sVpeculiarly
p3135
I0
sVsuavely
p3136
I0
sVinfra
p3137
I0
sVenquiringly
p3138
I0
sValoft
p3139
I0
sVnowhere
p3140
I0
sVmethodologically
p3141
I0
sVboastfully
p3142
I0
sVdenominationally
p3143
I0
sVcheerlessly
p3144
I0
sVby
p3145
I0
sVtranscendentally
p3146
I0
sVconcretely
p3147
I0
sVsoft
p3148
F0.16192978070637587
sVtaxonomically
p3149
I0
sVoutspokenly
p3150
I0
sVat_bottom
p3151
I0
sVsapiently
p3152
I0
sVcajolingly
p3153
I0
sVconcavely
p3154
I0
sVno_matter_what_happens
p3155
I0
sVunwontedly
p3156
I0
sVcomplainingly
p3157
I0
sVconsequently
p3158
I0
sVpre-eminently
p3159
I0
sVfitfully
p3160
I0
sVglumly
p3161
I0
sVconnubial
p3162
I0
sVtelegraphically
p3163
I0
sVinhospitably
p3164
I0
sVat_all
p3165
I0
sVto_be_precise
p3166
I0
sVwithin
p3167
I0
sVresignedly
p3168
I0
sVneedfully
p3169
I0
sVuncontroversially
p3170
I0
sVin_any_event
p3171
I0
sVobscenely
p3172
I0
sVprimarily
p3173
I0
sVunbeknownst
p3174
I0
sVcovetously
p3175
I0
sVilliberally
p3176
I0
sVdownhill
p3177
I0
sVmilitarily
p3178
I0
sVbeneath
p3179
I0
sVfurtively
p3180
I0
sVimportunately
p3181
I0
sVconceivably
p3182
I0
sVhypothetically
p3183
I0
sVglowingly
p3184
I0
sVthe_other_way_around
p3185
I0
sVwonderingly
p3186
I0
sVspecifically
p3187
I0
sVincongruously
p3188
I0
sVbeyond_control
p3189
I0
sVplain
p3190
I0
sVunder
p3191
I0
sVforward
p3192
I0
sVlightsomely
p3193
I0
sVevery_inch
p3194
I0
sVausterely
p3195
I0
sVcavalierly
p3196
I0
sVconsiderably
p3197
F-0.2066082421557166
sVforlornly
p3198
I0
sVclose_up
p3199
I0
sVto_boot
p3200
I0
sVgraciously
p3201
I0
sVatop
p3202
I0
sVbitterly
p3203
I0
sVspaciously
p3204
I0
sVpatronizingly
p3205
I0
sVtwirlingly
p3206
I0
sVsubjectively
p3207
I0
sVwolfishly
p3208
I0
sVrepeatedly
p3209
I0
sVtragically
p3210
I0
sVdisobediently
p3211
I0
sVsupinely
p3212
I0
sVindelibly
p3213
I0
sVwafer-thin
p3214
I0
sVwaist-high
p3215
I0
sVunintelligibly
p3216
I0
sVsixthly
p3217
I0
sVup
p3218
I0
sVin_large_quantities
p3219
I0
sVcautiously
p3220
I0
sVmarginally
p3221
I0
sVpsychologically
p3222
I0
sVapiece
p3223
I0
sVcontinuously
p3224
I0
sVvivaciously
p3225
I0
sVfor_24_hours
p3226
I0
sVetc.
p3227
I0
sVclear
p3228
I0
sVsocially
p3229
I0
sVhesitantly
p3230
I0
sVimpudently
p3231
I0
sVlikewise
p3232
I0
sVinexpertly
p3233
I0
sVthereabout
p3234
I0
sVundisputedly
p3235
I0
sVon_board
p3236
I0
sVcharitably
p3237
I0
sVglobally
p3238
I0
sVenduringly
p3239
I0
sVunsociably
p3240
I0
sVapropos
p3241
I0
sVmanfully
p3242
I0
sVformally
p3243
I0
sVin_utero
p3244
I0
sVinoffensively
p3245
I0
sVstiffly
p3246
I0
sVcaustically
p3247
I0
sVpro_forma
p3248
I0
sVcoastwise
p3249
I0
sVarchitecturally
p3250
I0
sVcome_hell_or_high_water
p3251
I0
sVunjustifiably
p3252
I0
sVreverently
p3253
I0
sVpart-time
p3254
I0
sVfutilely
p3255
I0
sVupstage
p3256
I0
sVmelodiously
p3257
I0
sVone-on-one
p3258
I0
sVinexpressively
p3259
I0
sVanonymously
p3260
I0
sVhydraulicly
p3261
I0
sVnay
p3262
I0
sVeerily
p3263
I0
sVungrammatically
p3264
I0
sVpatrilineally
p3265
I0
sV'tween
p3266
I0
sVheinously
p3267
I0
sVgood-naturedly
p3268
I0
sVconventionally
p3269
I0
sVreportedly
p3270
I0
sVlaxly
p3271
I0
sVearly_on
p3272
F-0.0015935358042720178
sVfaintly
p3273
I0
sVvivace
p3274
I0
sVin_the_same_breath
p3275
I0
sVin_due_course
p3276
I0
sVin_a_heartfelt_way
p3277
I0
sVfervently
p3278
I0
sVruthlessly
p3279
I0
sVasea
p3280
I0
sVbodily
p3281
I0
sVtrimly
p3282
I0
sVago
p3283
I0
sVfurthest
p3284
I0
sVgloatingly
p3285
I0
sVobediently
p3286
I0
sVmindlessly
p3287
I0
sVpractically
p3288
I0
sVcurvaceously
p3289
I0
sVas_a_matter_of_fact
p3290
I0
sVtawdrily
p3291
I0
sVnaively
p3292
I0
sVcontritely
p3293
I0
sVungratefully
p3294
I0
sVin_the_way
p3295
I0
sVslap-bang
p3296
I0
sVunitedly
p3297
I0
sVfresh
p3298
I0
sVabove_all
p3299
I0
sVdemonstratively
p3300
I0
sVto_that
p3301
I0
sVevenly
p3302
I0
sVmagnetically
p3303
I0
sVsub_rosa
p3304
I0
sVsouthwards
p3305
I0
sVskew-whiff
p3306
I0
sVecclesiastically
p3307
I0
sVenjoyably
p3308
I0
sVbloodlessly
p3309
I0
sVextensively
p3310
I0
sVweek_by_week
p3311
I0
sVfascinatingly
p3312
I0
sVstochastically
p3313
I0
sVlispingly
p3314
I0
sVmellowly
p3315
I0
sVday_after_day
p3316
I0
sVastern
p3317
I0
sVdeviously
p3318
I0
sVcozily
p3319
I0
sVall_in_all
p3320
I0
sVwrathfully
p3321
I0
sVedgewise
p3322
I0
sVimproperly
p3323
I0
sVdivertingly
p3324
I0
sVstably
p3325
I0
sVeach_week
p3326
I0
sVreversely
p3327
I0
sVapprovingly
p3328
I0
sVleast_of_all
p3329
I0
sVsure_as_shooting
p3330
I0
sVoutwards
p3331
I0
sVpreeminently
p3332
I0
sVquarterly
p3333
I0
sVmicroscopically
p3334
I0
sVprimly
p3335
I0
sVillegibly
p3336
I0
sVjust_as
p3337
I0
sVnorth-northwest
p3338
I0
sVmost_especially
p3339
I0
sVbluffly
p3340
I0
sVimplausibly
p3341
I0
sVreproachfully
p3342
I0
sVout_and_away
p3343
I0
sVpuckishly
p3344
I0
sVimplicitly
p3345
I0
sVperversely
p3346
I0
sVpro_tempore
p3347
I0
sVfor_the_time_being
p3348
I0
sVdevelopmentally
p3349
I0
sVet_al.
p3350
I0
sVobtusely
p3351
F-1.8874368000000012e-07
sVlengthwise
p3352
I0
sVrebukingly
p3353
I0
sVrattling
p3354
I0
sVby_a_long_shot
p3355
I0
sVcolloquially
p3356
I0
sVwordily
p3357
I0
sVtimely
p3358
I0
sVruinously
p3359
I0
sVatonally
p3360
I0
sVnonviolently
p3361
I0
sVlandwards
p3362
I0
sVsublimely
p3363
I0
sVeven_a_little
p3364
I0
sVamidship
p3365
I0
sVornately
p3366
I0
sVtenuously
p3367
I0
sVtopographically
p3368
I0
sVinsuperably
p3369
I0
sVexasperatingly
p3370
I0
sVzestfully
p3371
I0
sVad_valorem
p3372
I0
sVbetwixt
p3373
I0
sVinnately
p3374
I0
sVowlishly
p3375
I0
sVsomeday
p3376
I0
sVrespectfully
p3377
I0
sVabominably
p3378
F0.18052406661421855
sVon_average
p3379
I0
sVuncomfortably
p3380
I0
sVcursorily
p3381
F-0.3972197360533753
sVventrally
p3382
I0
sVin_her_own_right
p3383
I0
sVsleeplessly
p3384
I0
sVpersuasively
p3385
I0
sVunprofitably
p3386
I0
sVlongest
p3387
I0
sVsemiweekly
p3388
I0
sVincidentally
p3389
I0
sVprecipitately
p3390
I0
sVvolitionally
p3391
I0
sVdispleasingly
p3392
I0
sVgravely
p3393
F-0.16883978648457057
sVsuperstitiously
p3394
I0
sVinvisibly
p3395
I0
sVdolefully
p3396
I0
sVpitilessly
p3397
I0
sVsynthetically
p3398
I0
sVbluntly
p3399
I0
sVanalogously
p3400
I0
sVmost_importantly
p3401
I0
sVhenceforth
p3402
I0
sVconsistently
p3403
I0
sVgracelessly
p3404
I0
sVaground
p3405
I0
sVmusingly
p3406
I0
sVunmercifully
p3407
I0
sVthen
p3408
I0
sVhalf-hourly
p3409
I0
sVindescribably
p3410
I0
sVbumptiously
p3411
I0
sVcf.
p3412
I0
sVadvantageously
p3413
F1.9566205164341162
sVin_line
p3414
I0
sVsneeringly
p3415
I0
sVgaily
p3416
I0
sVfeudally
p3417
I0
sVself-evidently
p3418
I0
sVrespectively
p3419
I0
sVformlessly
p3420
I0
sVcategorically
p3421
I0
sVnimbly
p3422
I0
sVjointly
p3423
I0
sVhighly
p3424
I0
sVhand_and_glove
p3425
I0
sVby_memory
p3426
I0
sVperplexedly
p3427
I0
sVif_not
p3428
I0
sVlyrically
p3429
I0
sVdiscouragingly
p3430
I0
sVanticlockwise
p3431
I0
sVlegislatively
p3432
I0
sVimpenitently
p3433
I0
sVindiscreetly
p3434
I0
sVnoisily
p3435
I0
sVunwittingly
p3436
I0
sVunrelentingly
p3437
I0
sVobstreperously
p3438
F-9.808065331200007e-06
sVdisadvantageously
p3439
F0.3240283952119808
sVinvincibly
p3440
I0
sVprincipally
p3441
I0
sVin_due_season
p3442
I0
sVsouthwestward
p3443
I0
sVcommendable
p3444
I0
sVintelligibly
p3445
I0
sVceteris_paribus
p3446
I0
sVthe_right_way
p3447
F0.045699578839831306
sVnearest
p3448
I0
sVshoddily
p3449
I0
sVuntruthfully
p3450
I0
sVrakishly
p3451
I0
sVimprobably
p3452
I0
sVundemocratically
p3453
I0
sVunwillingly
p3454
I0
sVnotwithstanding
p3455
I0
sVprovidently
p3456
I0
sVprivately
p3457
I0
sVper_capita
p3458
I0
sVdoubtfully
p3459
I0
sVas_yet
p3460
I0
sVclockwise
p3461
I0
sVwitheringly
p3462
I0
sVunpleasantly
p3463
I0
sVtechnologically
p3464
I0
sVenterprisingly
p3465
I0
sVmanipulatively
p3466
I0
sVagreeably
p3467
I0
sVback_and_forth
p3468
I0
sVfittingly
p3469
I0
sVreservedly
p3470
I0
sVperiodically
p3471
I0
sVreadably
p3472
I0
sVclassically
p3473
I0
sVcolloidally
p3474
I0
sVin_absentia
p3475
I0
sVfar_and_away
p3476
I0
sVcapriciously
p3477
I0
sVfeelingly
p3478
I0
sVet_alibi
p3479
I0
sVdevotedly
p3480
I0
sVvariably
p3481
I0
sVhistorically
p3482
I0
sVdisgustingly
p3483
I0
sVunequally
p3484
I0
sVpitter-patter
p3485
I0
sVunilaterally
p3486
I0
sVstolidly
p3487
I0
sVthriftlessly
p3488
I0
sVdisputatiously
p3489
I0
sVmalevolently
p3490
I0
sVhotfoot
p3491
I0
sVimpishly
p3492
I0
sVunclearly
p3493
I0
sVsteadfastly
p3494
F0.0007373979648000003
sVcrookedly
p3495
I0
sVsharply
p3496
I0
sVinformally
p3497
I0
sVdistractedly
p3498
I0
sVgladly
p3499
I0
sVnobly
p3500
I0
sVungrudgingly
p3501
I0
sVcontumeliously
p3502
I0
sVand_then_some
p3503
I0
sVheavenwards
p3504
I0
sVunscrupulously
p3505
I0
sVon_a_regular_basis
p3506
I0
sVphotoelectrically
p3507
I0
sVlike_crazy
p3508
I0
sVirreparably
p3509
I0
sVsacredly
p3510
I0
sVstrategically
p3511
I0
sVeruditely
p3512
I0
sVanywhere
p3513
I0
sVthin
p3514
F-4.163213721600003e-05
sVsymbiotically
p3515
I0
sVbackwards
p3516
I0
sVunmelodiously
p3517
I0
sVunsuspectingly
p3518
I0
sVto_the_highest_degree
p3519
F-0.0009680573477053608
sVmore_often_than_not
p3520
I0
sVindustrially
p3521
I0
sVunstintingly
p3522
I0
sVgluttonously
p3523
I0
sVat_any_cost
p3524
I0
sVe.g.
p3525
I0
sVpainstakingly
p3526
I0
sVloftily
p3527
I0
sVthermally
p3528
I0
sVpharmacologically
p3529
I0
sVdripping
p3530
I0
sVon_the_wing
p3531
I0
sVfishily
p3532
I0
sVraspingly
p3533
I0
sVlanguorously
p3534
I0
sVby_and_by
p3535
I0
sVinaccessibly
p3536
I0
sVexorbitantly
p3537
I0
sVin_common
p3538
I0
sVovertly
p3539
I0
sVgainfully
p3540
I0
sVmagnificently
p3541
I0
sVadjectivally
p3542
I0
sVsort_of
p3543
I0
sVgratis
p3544
I0
sVon_time
p3545
I0
sVmutually
p3546
I0
sVhereinafter
p3547
I0
sVarithmetically
p3548
I0
sVembarrassingly
p3549
I0
sVboldly
p3550
I0
sVextortionately
p3551
I0
sVsic
p3552
I0
sVunquestionably
p3553
I0
sVrurally
p3554
I0
sVjustifiably
p3555
I0
sVpaternally
p3556
I0
sVinstead
p3557
I0
sVgrudgingly
p3558
I0
sVengagingly
p3559
I0
sVideologically
p3560
I0
sVstuffily
p3561
I0
sVweightily
p3562
I0
sVto_it
p3563
I0
sVceremoniously
p3564
I0
sVultrasonically
p3565
I0
sVluxuriously
p3566
I0
sVat_any_expense
p3567
I0
sVunforgivably
p3568
I0
sVjoylessly
p3569
I0
sVtactually
p3570
I0
sVfor_certain
p3571
I0
sVunnaturally
p3572
I0
sVde_jure
p3573
I0
sVponderously
p3574
I0
sVstiff
p3575
I0
sVflagrantly
p3576
I0
sVupstate
p3577
I0
sVpiquantly
p3578
I0
sVon_the_spot
p3579
I0
sVentreatingly
p3580
I0
sVdistressfully
p3581
I0
sVfatally
p3582
I0
sVdisbelievingly
p3583
I0
sVcounter
p3584
I0
sVsidelong
p3585
I0
sVon_a_lower_floor
p3586
I0
sVsuperbly
p3587
F6.197209493179084
sVhonestly
p3588
I0
sVsensitively
p3589
I0
sVpresumptuously
p3590
I0
sVdeeply
p3591
F0.0016362307440428978
sVtimorously
p3592
I0
sVunder_it
p3593
I0
sVlike_blue_murder
p3594
I0
sVstatutorily
p3595
I0
sVad_libitum
p3596
I0
sVcontrariwise
p3597
I0
sVin_full_swing
p3598
I0
sVby_any_means
p3599
I0
sVwinsomely
p3600
I0
sVadjectively
p3601
I0
sVcoolly
p3602
I0
sVto_that_effect
p3603
I0
sValtogether
p3604
I0
sVequally
p3605
I0
sVat_leisure
p3606
I0
sVcross-linguistically
p3607
I0
sVunofficially
p3608
I0
sVunpalatably
p3609
I0
sVindignantly
p3610
I0
sVsnootily
p3611
I0
sVslam-bang
p3612
I0
sVproperly_speaking
p3613
I0
sVhorizontally
p3614
I0
sVthence
p3615
I0
sVunrealistically
p3616
I0
sVin_secret
p3617
I0
sVmeantime
p3618
I0
sVfrostily
p3619
I0
sVcircumspectly
p3620
I0
sVin_a_flash
p3621
F-0.0002127679391591233
sVsardonically
p3622
I0
sVdishonorably
p3623
I0
sVall_of_a_sudden
p3624
I0
sVeastward
p3625
I0
sVpopularly
p3626
I0
sVbelatedly
p3627
F-0.06591582247107548
sVscurvily
p3628
I0
sVpoint-blank
p3629
I0
sVaft
p3630
I0
sVa_priori
p3631
I0
sVrhapsodically
p3632
I0
sVjaggedly
p3633
I0
sVsoon_enough
p3634
I0
sVinstinctively
p3635
I0
sVinstitutionally
p3636
I0
sVfrivolously
p3637
I0
sVcorruptly
p3638
I0
sVslantingly
p3639
I0
sVruefully
p3640
I0
sVsoutheastward
p3641
I0
sVmaternally
p3642
I0
sVunpredictably
p3643
I0
sVas_far_as_possible
p3644
I0
sVmeritoriously
p3645
I0
sVlividly
p3646
I0
sVjestingly
p3647
I0
sVsidewards
p3648
I0
sVnonstop
p3649
I0
sVenviably
p3650
I0
sVlimnologically
p3651
I0
sVunevenly
p3652
I0
sVindolently
p3653
I0
sVunassumingly
p3654
I0
sVupward
p3655
I0
sVindulgently
p3656
I0
sVvilely
p3657
I0
sVdue
p3658
I0
sVexpectantly
p3659
I0
sVslightingly
p3660
I0
sVhabitually
p3661
I0
sVpro_tem
p3662
I0
sVdescriptively
p3663
I0
sVunrighteously
p3664
I0
sVfuriously
p3665
I0
sVslouchily
p3666
I0
sVof_late
p3667
F0.0044497455907204
sVon_the_button
p3668
I0
sVconsecutively
p3669
I0
sVout
p3670
I0
sVsecretly
p3671
I0
sVsoutherly
p3672
I0
sVunreproducibly
p3673
I0
sVhonorably
p3674
I0
sVtraitorously
p3675
I0
sVrevoltingly
p3676
I0
sVnohow
p3677
I0
sVface_to_face
p3678
I0
sVunproductively
p3679
I0
sVcriminally
p3680
I0
sVwholly
p3681
I0
sVin_the_first_place
p3682
I0
sVpowerlessly
p3683
I0
sVA.M.
p3684
I0
sVwondrous
p3685
F-0.6694355848895805
sVheartily
p3686
I0
sVtardily
p3687
F-0.15713967775297794
sVslapdash
p3688
I0
sVbrilliantly
p3689
I0
sVfondly
p3690
I0
sVstunningly
p3691
I0
sVsolicitously
p3692
I0
sVgrungily
p3693
I0
sVpossessively
p3694
I0
sVunscientifically
p3695
I0
sVforgivingly
p3696
I0
sVdarkly
p3697
I0
sVon_it
p3698
I0
sVchattily
p3699
I0
sVpig-a-back
p3700
I0
sVsurely
p3701
I0
sVmeaningfully
p3702
I0
sVscienter
p3703
I0
sVobsequiously
p3704
I0
sVanyhow
p3705
I0
sVafterward
p3706
I0
sVbetween_decks
p3707
I0
sVboyishly
p3708
I0
sVheels_over_head
p3709
I0
sVone_at_a_time
p3710
I0
sVentertainingly
p3711
I0
sVviva_voce
p3712
I0
sVdownstage
p3713
I0
sVrearward
p3714
I0
sVamain
p3715
I0
sVfor_the_most_part
p3716
I0
sVsideward
p3717
I0
sVas_if_by_magic
p3718
I0
sVcredulously
p3719
I0
sVsnobbishly
p3720
I0
sVfeasibly
p3721
I0
sVcounterintuitively
p3722
I0
sVphilanthropically
p3723
I0
sVin_a_beastly_manner
p3724
I0
sVhence
p3725
I0
sVat_the_least
p3726
I0
sVover_here
p3727
I0
sVretail
p3728
I0
sVin_fiscal_matters
p3729
I0
sVastutely
p3730
I0
sVsouth
p3731
I0
sVculturally
p3732
I0
sVto_a_T
p3733
I0
sVup-country
p3734
I0
sVinconsequentially
p3735
I0
sVplainly
p3736
I0
sVseasonably
p3737
I0
sVbeseechingly
p3738
I0
sVpowerful
p3739
F0.10529128879114967
sVdelicately
p3740
I0
sVhitherto
p3741
I0
sVintuitively
p3742
I0
sVthus_far
p3743
I0
sVdisparagingly
p3744
I0
sVgratuitously
p3745
I0
sVto_date
p3746
I0
sVyouthfully
p3747
I0
sVafield
p3748
I0
sVprecisely
p3749
I0
sVrealistically
p3750
I0
sVrecurrently
p3751
I0
sVunpropitiously
p3752
I0
sVsynchronously
p3753
I0
sVnervily
p3754
I0
sVlong
p3755
I0
sVstringently
p3756
I0
sVerstwhile
p3757
F0.003306459869727219
sVlengthily
p3758
I0
sVmischievously
p3759
F-0.17970295566012257
sVimmovably
p3760
I0
sVafoot
p3761
I0
sVshockingly
p3762
I0
sVimpassively
p3763
I0
sVright-down
p3764
I0
sVfleetly
p3765
I0
sVprovokingly
p3766
I0
sVefficiently
p3767
I0
sVprecipitously
p3768
I0
sVwistfully
p3769
I0
sVlow
p3770
I0
sVdeliriously
p3771
I0
sVtime_and_again
p3772
I0
sVsloppily
p3773
I0
sVbig
p3774
I0
sVas_such
p3775
I0
sVexactly
p3776
I0
sVpicturesquely
p3777
I0
sVdevoutly
p3778
I0
sVnostalgically
p3779
I0
sVcrosswise
p3780
I0
sVsporadically
p3781
I0
sVpornographically
p3782
I0
sVcryptically
p3783
I0
sVjauntily
p3784
I0
sVtacitly
p3785
I0
sVtattily
p3786
I0
sVbiradially
p3787
I0
sVfrowningly
p3788
I0
sVin_full
p3789
I0
sVleniently
p3790
I0
sVwanly
p3791
I0
sVo'er
p3792
I0
sVbalmily
p3793
I0
sVto_all_intents_and_purposes
p3794
I0
sVlike_a_shot
p3795
F-0.006646353828442994
sVshapelessly
p3796
I0
sVbewilderedly
p3797
I0
sVsuccinctly
p3798
I0
sVjust_about
p3799
F-0.0006067995614284619
sVhoarsely
p3800
I0
sVobjectionably
p3801
I0
sVlight
p3802
F0.00017513054208000012
sVfastidiously
p3803
I0
sVnegatively
p3804
I0
sVhermetically
p3805
I0
sVintransitively
p3806
I0
sVever_so
p3807
I0
sVtout_ensemble
p3808
I0
sVin_a_similar_way
p3809
I0
sVtransitionally
p3810
I0
sVgratingly
p3811
I0
sVdourly
p3812
I0
sVphonetically
p3813
I0
sVvicariously
p3814
I0
sVpitiably
p3815
I0
sVadverbially
p3816
I0
sVgently
p3817
F0.0001318468976640001
sVwestward
p3818
I0
sVtonight
p3819
I0
sVthereto
p3820
I0
sVfrom_scratch
p3821
I0
sVmeagrely
p3822
F6.597069766656001e-07
sVethnically
p3823
I0
sVhospitably
p3824
I0
sVphilatelically
p3825
I0
sVgloomily
p3826
I0
sVgutturally
p3827
I0
sVconceitedly
p3828
I0
sVregally
p3829
I0
sVwearily
p3830
I0
sVclearly
p3831
I0
sVad_nauseam
p3832
I0
sVunaccountably
p3833
I0
sVminimally
p3834
I0
sVhungrily
p3835
I0
sVsaucily
p3836
I0
sVpriggishly
p3837
I0
sVperipherally
p3838
I0
sVmasochistically
p3839
I0
sVtherewith
p3840
I0
sVall_at_once
p3841
I0
sVgingerly
p3842
I0
sVtelescopically
p3843
I0
sVably
p3844
I0
sVtastily
p3845
I0
sVpretentiously
p3846
I0
sVastride
p3847
I0
sVashore
p3848
I0
sVnorthwestward
p3849
I0
sVschematically
p3850
I0
sVsavagely
p3851
I0
sVunquietly
p3852
I0
sVunbearably
p3853
I0
sVby_machine
p3854
I0
sVwarily
p3855
I0
sVvapidly
p3856
I0
sViniquitously
p3857
I0
sVrepentantly
p3858
I0
sVavowedly
p3859
I0
sVpassionately
p3860
I0
sVscreamingly
p3861
I0
sVdamply
p3862
I0
sVunobtrusively
p3863
I0
sVsecretively
p3864
I0
sVconfusingly
p3865
I0
sVevery_week
p3866
I0
sVpermissively
p3867
I0
sVbut
p3868
I0
sVpreposterously
p3869
I0
sVunalterably
p3870
I0
sVflip-flap
p3871
I0
sVsubsequently
p3872
I0
sVthen_again
p3873
I0
sVinsidiously
p3874
I0
sVabstrusely
p3875
I0
sVunerringly
p3876
I0
sVevolutionarily
p3877
I0
sVin_someone's_way
p3878
I0
sVfilthily
p3879
I0
sVappallingly
p3880
I0
sVovermuch
p3881
I0
sVstartlingly
p3882
I0
sVin_public
p3883
I0
sVpinnately
p3884
I0
sVdeadpan
p3885
I0
sVpertinently
p3886
I0
sVdemurely
p3887
I0
sVnebulously
p3888
I0
sVbombastically
p3889
I0
sVnormally
p3890
I0
sVheadfirst
p3891
I0
sVinexorably
p3892
I0
sVeminently
p3893
I0
sVinterchangeably
p3894
I0
sVlittle_by_little
p3895
I0
sVpreternaturally
p3896
I0
sVpompously
p3897
I0
sVsignally
p3898
I0
sVcognitively
p3899
I0
sVpervasively
p3900
I0
sVartfully
p3901
I0
sVpotently
p3902
I0
sVtrustfully
p3903
I0
sVsouth-east
p3904
I0
sVas_luck_would_have_it
p3905
I0
sVfrom_start_to_finish
p3906
I0
sVpell-mell
p3907
I0
sVfretfully
p3908
I0
sVcoastward
p3909
I0
sVrough
p3910
F-4.80169807640103e-05
sVreprehensibly
p3911
I0
sVfunctionally
p3912
I0
sVout_of_the_way
p3913
I0
sVCommon_Era
p3914
I0
sVup_to_now
p3915
I0
sVin_vitro
p3916
I0
sVnearer
p3917
I0
sVuntimely
p3918
I0
sVperkily
p3919
I0
sVdecisively
p3920
I0
sVobstinately
p3921
I0
sVpromisingly
p3922
I0
sVdeucedly
p3923
I0
sVintrepidly
p3924
I0
sVpiano
p3925
F-4.1868066816000025e-05
sVplacatingly
p3926
I0
sVin_some_manner
p3927
I0
sVthreateningly
p3928
I0
sVregularly
p3929
I0
sVinto_the_bargain
p3930
I0
sVfor_good_measure
p3931
I0
sVdisappointingly
p3932
I0
sVintellectually
p3933
I0
sVdingily
p3934
I0
sVhypnotically
p3935
I0
sVnasally
p3936
I0
sVbeyond_doubt
p3937
I0
sVat_the_best
p3938
I0
sVirreproachably
p3939
I0
sVat_first_blush
p3940
I0
sVdefenseless
p3941
I0
sVchaotically
p3942
I0
sVnearly
p3943
F0.10826111288884882
sVenigmatically
p3944
I0
sVsmash
p3945
I0
sVforbiddingly
p3946
I0
sVsanely
p3947
F-7.680440476253818e-07
sVcourse
p3948
I0
sVpungently
p3949
I0
sVunsympathetically
p3950
I0
sVon_the_QT
p3951
I0
sVoppressively
p3952
I0
sVpolemically
p3953
I0
sVoptimally
p3954
I0
sVparenterally
p3955
I0
sVeccentrically
p3956
I0
sVstraight_off
p3957
F-0.1531229352227059
sVcontemptibly
p3958
I0
sVall_over
p3959
I0
sVhigh-mindedly
p3960
I0
sVincurably
p3961
I0
sVtemporarily
p3962
I0
sVfarthest
p3963
I0
sVhorticulturally
p3964
I0
sVterrifically
p3965
F-0.7957396779424599
sVahead_of_time
p3966
F0.0003424460472320001
sVfantastically
p3967
I0
sVcrossly
p3968
I0
sVdistantly
p3969
I0
sVtime_and_time_again
p3970
I0
sVfor_free
p3971
I0
sVgeometrically
p3972
I0
sVunfairly
p3973
F5.777958980691249e-06
sVwaist-deep
p3974
I0
sVin_truth
p3975
I0
sVrighteously
p3976
I0
sVlickety_split
p3977
I0
sVrobustly
p3978
I0
sVcloser
p3979
I0
sVscoffingly
p3980
I0
sVflirtatiously
p3981
I0
sVheavenwardly
p3982
I0
sVarguably
p3983
I0
sVabstemiously
p3984
I0
sVsouthward
p3985
I0
sVashamedly
p3986
I0
sVtypographically
p3987
I0
sVwastefully
p3988
I0
sVdialectically
p3989
I0
sVscathingly
p3990
I0
sVquickest
p3991
I0
sVderisively
p3992
I0
sVprosaically
p3993
I0
sVrepetitively
p3994
I0
sVwealthily
p3995
I0
sVmirthfully
p3996
F-2.3257482305926387
sVtediously
p3997
I0
sVfrontward
p3998
I0
sVsmilingly
p3999
I0
sVtimidly
p4000
I0
sValphabetically
p4001
I0
sVsorely
p4002
I0
sVaffectedly
p4003
I0
sVhorrifyingly
p4004
I0
sVfirst_and_last
p4005
I0
sVscreakily
p4006
I0
sVplacidly
p4007
I0
sVineffectually
p4008
I0
sVword_for_word
p4009
I0
sVbarbarously
p4010
I0
sVimpulsively
p4011
I0
sVthermostatically
p4012
I0
sVdistrustfully
p4013
I0
sVproficiently
p4014
I0
sVdisproportionately
p4015
I0
sVprecious
p4016
I0
sVcomparably
p4017
I0
sVsacrilegiously
p4018
I0
sVcaudally
p4019
I0
sVcaptiously
p4020
I0
sVasunder
p4021
I0
sVin_apposition
p4022
I0
sVcalculatingly
p4023
I0
sVfreely
p4024
I0
sVoff_the_cuff
p4025
I0
sVfor_all_practical_purposes
p4026
I0
sVbroadside
p4027
I0
sVvaliantly
p4028
I0
sVturgidly
p4029
I0
sVmotionlessly
p4030
I0
sVinnocently
p4031
I0
sVdisagreeably
p4032
I0
sVheavenward
p4033
I0
sVgrievously
p4034
I0
sVout_of_sight
p4035
I0
sVsafely
p4036
I0
sVmincingly
p4037
I0
sVin_one's_own_right
p4038
I0
sVfoxily
p4039
I0
sVonce_and_for_all
p4040
I0
sVhatefully
p4041
I0
sVrampantly
p4042
I0
sVelectrostatically
p4043
I0
sVunmindfully
p4044
I0
sVevasively
p4045
I0
sVby_choice
p4046
I0
sVhand_in_hand
p4047
I0
sVin_principle
p4048
I0
sVstylistically
p4049
I0
sVunselfishly
p4050
I0
sVsmoulderingly
p4051
I0
sVtortuously
p4052
I0
sVforrader
p4053
I0
sVslavishly
p4054
I0
sVi.e.
p4055
I0
sVpropitiously
p4056
I0
sVnor'-nor'-west
p4057
I0
sVnow_now
p4058
I0
sVbureaucratically
p4059
I0
sVby_hand
p4060
I0
sVcomposedly
p4061
I0
sVpenetratively
p4062
I0
sVen_masse
p4063
I0
sVtoughly
p4064
I0
sVslowly
p4065
F0.10898353765447999
sVseawards
p4066
I0
sVimpetuously
p4067
I0
sVluridly
p4068
I0
sVinjuriously
p4069
I0
sVdivinely
p4070
I0
sVasymmetrically
p4071
I0
sVoptionally
p4072
I0
sVnegligently
p4073
I0
sVcrisscross
p4074
I0
sVon_purpose
p4075
I0
sVoverwhelmingly
p4076
I0
sVresourcefully
p4077
I0
sVdispiritedly
p4078
I0
sV'tween_decks
p4079
I0
sVuppishly
p4080
I0
sVlike_hell
p4081
I0
sVvitriolically
p4082
I0
sVcontradictorily
p4083
I0
sVevery_bit
p4084
I0
sVtherefor
p4085
I0
sVsourly
p4086
I0
sVremorsefully
p4087
I0
sVsingly
p4088
I0
sVnoiselessly
p4089
I0
sVby_the_piece
p4090
I0
sVaccommodatingly
p4091
I0
sVspasmodically
p4092
I0
sVsynergistically
p4093
I0
sVremorselessly
p4094
I0
sVbroad-mindedly
p4095
I0
sVinaccurately
p4096
I0
sVnevermore
p4097
I0
sVgrossly
p4098
I0
sVtropically
p4099
I0
sVspookily
p4100
I0
sVbiologically
p4101
I0
sVmidweek
p4102
I0
sVwesterly
p4103
I0
sVbarely
p4104
I0
sVjournalistically
p4105
I0
sVmanually
p4106
I0
sValmost
p4107
F0.0039010166085606274
sVbiannually
p4108
I0
sVacross_the_country
p4109
I0
sVingeniously
p4110
I0
sVto_the_hilt
p4111
I0
sVbelligerently
p4112
I0
sVhereinbefore
p4113
I0
sVpiteously
p4114
I0
sVabaxially
p4115
I0
sVexcessively
p4116
I0
sVin_time
p4117
I0
sVravenously
p4118
I0
sVoff_the_record
p4119
I0
sVimprudently
p4120
I0
sVdirtily
p4121
I0
sVunwantedly
p4122
I0
sVdogmatically
p4123
I0
sVunforgivingly
p4124
I0
sVdisapprovingly
p4125
I0
sVpolygonally
p4126
I0
sVperhaps
p4127
I0
sVjust_in_time
p4128
I0
sVradially
p4129
I0
sVlimply
p4130
I0
sVon_request
p4131
I0
sVignorantly
p4132
I0
sVtemptingly
p4133
I0
sVunintelligently
p4134
I0
sVnorthwest
p4135
I0
sVunderground
p4136
I0
sVsubserviently
p4137
I0
sVjoyously
p4138
F5.4874656451133434
sVpurposelessly
p4139
I0
sVfor_any_price
p4140
I0
sVslickly
p4141
I0
sVin_brief
p4142
I0
sVworthily
p4143
I0
sVeffusively
p4144
I0
sVimpeccably
p4145
I0
sVrightfully
p4146
I0
sVfifthly
p4147
I0
sVprodigiously
p4148
I0
sVbarefacedly
p4149
I0
sVtetchily
p4150
I0
sVstrictly_speaking
p4151
I0
sVintravenously
p4152
I0
sVnightly
p4153
I0
sVpertly
p4154
I0
sVcourageously
p4155
I0
sVheartlessly
p4156
I0
sVfrequently
p4157
I0
sVwrongly
p4158
F-1.5685421971763809
sVmeretriciously
p4159
I0
sVjerkily
p4160
I0
sVunimaginably
p4161
I0
sVunappreciatively
p4162
I0
sVafter_hours
p4163
I0
sVscarcely
p4164
I0
sVattentively
p4165
I0
sVoff
p4166
I0
sVbecomingly
p4167
I0
sVunimpressively
p4168
I0
sVnevertheless
p4169
I0
sVbrutishly
p4170
I0
sVout_loud
p4171
F-2.3592960000000016e-07
sVfeverishly
p4172
I0
sVthirstily
p4173
I0
sVliteratim
p4174
I0
sVunceasingly
p4175
I0
sVexceedingly
p4176
I0
sVcatastrophically
p4177
I0
sVsqualidly
p4178
I0
sVslenderly
p4179
F2.1283436134664654e-05
sVoft
p4180
I0
sVchock-a-block
p4181
I0
sVfirstly
p4182
I0
sVonerously
p4183
I0
sVraving
p4184
I0
sVtactfully
p4185
I0
sVup_the_stairs
p4186
I0
sVpeacefully
p4187
I0
sVinconsistently
p4188
I0
sVmarvellously
p4189
F5.708501101198567
sVroutinely
p4190
I0
sVuncomparably
p4191
I0
sVattractively
p4192
I0
sVheavily
p4193
F0.0063431393804288016
sVincreasingly
p4194
I0
sVhalf
p4195
I0
sVnot
p4196
I0
sVcomplacently
p4197
I0
sVeven_so
p4198
I0
sVemulously
p4199
I0
sVnervelessly
p4200
I0
sVvehemently
p4201
I0
sVlately
p4202
F0.015139211866599594
sVseductively
p4203
I0
sVhypocritically
p4204
I0
sVextempore
p4205
I0
sVavidly
p4206
I0
sVin_concert
p4207
I0
sVinaugurally
p4208
I0
sVendogenously
p4209
I0
sVO.K.
p4210
I0
sVbarefooted
p4211
I0
sVmorbidly
p4212
I0
sVout_front
p4213
I0
sVunrestrainedly
p4214
I0
sVtrepidly
p4215
I0
sVmeagerly
p4216
F8.246337208320002e-07
sVhalf-price
p4217
I0
sVtremulously
p4218
I0
sVdiscreditably
p4219
I0
sVuncompromisingly
p4220
I0
sVto_perfection
p4221
I0
sVcharacteristically
p4222
I0
sVvirulently
p4223
I0
sVmomently
p4224
I0
sVhaltingly
p4225
I0
sVimpiously
p4226
I0
sVsordidly
p4227
I0
sVcantankerously
p4228
I0
sVthoughtlessly
p4229
I0
sVfamously
p4230
I0
sVsincerely_yours
p4231
I0
sVsidearm
p4232
I0
sVpassively
p4233
I0
sVsingle-handed
p4234
I0
sVrebelliously
p4235
I0
sVto_order
p4236
I0
sVpresidentially
p4237
I0
sVsluggishly
p4238
I0
sVanomalously
p4239
I0
sVamply
p4240
I0
sVprepositionally
p4241
I0
sVeven_as
p4242
I0
sVuninstructively
p4243
I0
sVaudibly
p4244
I0
sVunimpeachably
p4245
I0
sVgoddamned
p4246
I0
sVincompletely
p4247
I0
sVto_the_south
p4248
I0
sVunder_arms
p4249
I0
sVin_the_air
p4250
I0
sVin_hiding
p4251
I0
sVflimsily
p4252
I0
sVlengthways
p4253
I0
sVjejunely
p4254
I0
sVby_luck
p4255
I0
sVpenally
p4256
I0
sVtauntingly
p4257
I0
sVa_great_deal
p4258
I0
sVlucidly
p4259
I0
sVtrenchantly
p4260
I0
sVtherein
p4261
I0
sVexhaustively
p4262
F0.02053308416
sVas_we_say
p4263
I0
sVstraightway
p4264
I0
sVcrazily
p4265
I0
sVgenealogically
p4266
I0
sVsmoothly
p4267
I0
sVwindward
p4268
I0
sVfaddily
p4269
I0
sVenormously
p4270
I0
sVillegally
p4271
I0
sValgebraically
p4272
I0
sVabusively
p4273
I0
sVbroadwise
p4274
I0
sVflush
p4275
I0
sVon_the_contrary
p4276
I0
sVhome
p4277
I0
sVcosmetically
p4278
I0
sVout_of_nothing
p4279
I0
sVad_val
p4280
I0
sVaesthetically
p4281
I0
sVsweepingly
p4282
I0
sVsteaming
p4283
I0
sVliterally
p4284
I0
sVotherwise
p4285
I0
sVlegato
p4286
I0
sVstaccato
p4287
I0
sVnine_times
p4288
I0
sVapathetically
p4289
I0
sVhumorously
p4290
I0
sVimpolitely
p4291
I0
sVpatiently
p4292
I0
sVsoughingly
p4293
I0
sVunchangeably
p4294
I0
sVthinly
p4295
F-0.0005859395549265924
sVungraciously
p4296
I0
sVcraftily
p4297
I0
sVnot_by_a_blame_sight
p4298
I0
sVcontextually
p4299
I0
sVelectrically
p4300
I0
sVimpartially
p4301
I0
sVlightly
p4302
F0.001975862713384961
sVtenfold
p4303
I0
sVat_stake
p4304
I0
sVgaudily
p4305
I0
sVhalf-time
p4306
I0
sVassiduously
p4307
I0
sVmuch_as
p4308
I0
sVstockily
p4309
I0
sVshakily
p4310
I0
sVconfoundedly
p4311
I0
sVafter
p4312
I0
sVflexibly
p4313
I0
sVprofessedly
p4314
I0
sVweek_after_week
p4315
I0
sVabout
p4316
F0.0065174340785113805
sVcondescendingly
p4317
I0
sVin_that
p4318
I0
sVascetically
p4319
I0
sVstereotypically
p4320
I0
sVretrospectively
p4321
I0
sVswimmingly
p4322
I0
sVsmartly
p4323
I0
sVoff-hand
p4324
I0
sVcompatibly
p4325
I0
sVibid.
p4326
I0
sVsubmissively
p4327
I0
sVmonthly
p4328
I0
sVnoxiously
p4329
I0
sVvocationally
p4330
I0
sVpickaback
p4331
I0
sVarrogantly
p4332
I0
sVsky-high
p4333
I0
sVat_a_loss
p4334
I0
sVrepellently
p4335
I0
sVlogogrammatically
p4336
I0
sVunfashionably
p4337
I0
sVwoodenly
p4338
I0
sVpitty-patty
p4339
I0
sVkinda
p4340
I0
sVpreviously
p4341
I0
sVconvivially
p4342
I0
sVuninterruptedly
p4343
I0
sVunquestioningly
p4344
I0
sVdemonstrably
p4345
I0
sVplaguily
p4346
I0
sVtalkily
p4347
I0
sVdiplomatically
p4348
I0
sVin_haste
p4349
I0
sVunfavourably
p4350
I0
sVen_route
p4351
I0
sVwheresoever
p4352
I0
sVby_heart
p4353
I0
sVvanishingly
p4354
I0
sVpatronisingly
p4355
I0
sVuncontrollably
p4356
I0
sVhither_and_thither
p4357
I0
sVboisterously
p4358
I0
sVrestfully
p4359
F9.789190963200006e-06
sVpalely
p4360
I0
sVcontentedly
p4361
I0
sVfunnily
p4362
I0
sVprotractedly
p4363
I0
sVfaultily
p4364
I0
sVovertime
p4365
I0
sVfiguratively
p4366
I0
sVhideously
p4367
I0
sVipso_facto
p4368
I0
sVor_so
p4369
F3.569893493169536e-05
sVluxuriantly
p4370
I0
sVat_last
p4371
I0
sVupwards
p4372
I0
sVnaturally
p4373
I0
sVnorth
p4374
I0
sVpitifully
p4375
I0
sVplaguy
p4376
I0
sVpuritanically
p4377
I0
sVlimpidly
p4378
I0
sVclimatically
p4379
I0
sVyeah
p4380
I0
sVunfalteringly
p4381
I0
sVpiously
p4382
I0
sVin_all_likelihood
p4383
I0
sVcontemptuously
p4384
I0
sVheedlessly
p4385
I0
sVaslant
p4386
I0
sVminutely
p4387
I0
sVpartially
p4388
I0
sVcurtly
p4389
I0
sVneurotically
p4390
I0
sVupwardly
p4391
I0
sVwretchedly
p4392
I0
sVfrugally
p4393
I0
sVa_good_deal
p4394
I0
sVheatedly
p4395
I0
sVvery_loudly
p4396
I0
sVprematurely
p4397
I0
sVlicentiously
p4398
I0
sVbelow
p4399
I0
sVonwards
p4400
I0
sVoffstage
p4401
I0
sVaristocratically
p4402
I0
sVsuggestively
p4403
I0
sVseverely
p4404
F0.005855983616105915
sVman-to-man
p4405
I0
sVdetestably
p4406
F-0.34639441969772927
sVdiligently
p4407
I0
sVsince_a_long_time_ago
p4408
I0
sVpiratically
p4409
I0
sVrightly
p4410
F0.08436247587080346
sVASAP
p4411
I0
sVstock-still
p4412
I0
sVsexually
p4413
I0
sVsymbolically
p4414
I0
sVgropingly
p4415
I0
sVindeterminably
p4416
I0
sVemotionally
p4417
I0
sVprudently
p4418
I0
sVparentally
p4419
I0
sVevery_quarter
p4420
I0
sVunachievably
p4421
I0
sVcheerily
p4422
I0
sVmysteriously
p4423
I0
sVsoutheastwardly
p4424
I0
sVmessily
p4425
I0
sVsuperlatively
p4426
I0
sVand_so_forth
p4427
I0
sVradiantly
p4428
I0
sVpyramidically
p4429
I0
sVinterdepartmental
p4430
I0
sVforgivably
p4431
I0
sVeducationally
p4432
I0
sVdirefully
p4433
I0
sVanyway
p4434
I0
sVspirally
p4435
I0
sVtenaciously
p4436
I0
sVsuspiciously
p4437
I0
sVtheretofore
p4438
I0
sVgallantly
p4439
I0
sVvirtuously
p4440
I0
sVin_circles
p4441
I0
sVrecklessly
p4442
I0
sVsparsely
p4443
I0
sVover_and_over_again
p4444
I0
sVboylike
p4445
I0
sVexcitingly
p4446
I0
sVone_one's_coattails
p4447
I0
sVcloyingly
p4448
I0
sVinherently
p4449
I0
sVtritely
p4450
I0
sVopportunely
p4451
I0
sVimmoderately
p4452
F-4.7372238580403407e-07
sVdisappointedly
p4453
I0
sVbackstage
p4454
I0
sVin_other_words
p4455
I0
sVgloriously
p4456
I0
sVcrudely
p4457
I0
sVoverseas
p4458
I0
sVperniciously
p4459
I0
sVathwart
p4460
I0
sVoverleaf
p4461
I0
sVastraddle
p4462
I0
sVquicker
p4463
I0
sVdoltishly
p4464
I0
sVlifelessly
p4465
I0
sVpellucidly
p4466
I0
sVreprovingly
p4467
I0
sVforthrightly
p4468
I0
sVgruffly
p4469
I0
sVsopping
p4470
I0
sVa_bit
p4471
I0
sVcoincidentally
p4472
I0
sVperpendicularly
p4473
I0
sVnortherly
p4474
I0
sVstandoffishly
p4475
I0
sVsultrily
p4476
I0
sVunsteadily
p4477
I0
sVvitally
p4478
I0
sVpugnaciously
p4479
I0
sVrepellingly
p4480
I0
sVstiltedly
p4481
I0
s.